
bomb:     file format elf64-x86-64


Disassembly of section .init:

0000000000400bb0 <_init>:
  400bb0:	48 83 ec 08          	sub    $0x8,%rsp
  400bb4:	48 8b 05 3d 34 20 00 	mov    0x20343d(%rip),%rax        # 603ff8 <__gmon_start__>
  400bbb:	48 85 c0             	test   %rax,%rax
  400bbe:	74 05                	je     400bc5 <_init+0x15>
  400bc0:	e8 0b 02 00 00       	callq  400dd0 <__gmon_start__@plt>
  400bc5:	48 83 c4 08          	add    $0x8,%rsp
  400bc9:	c3                   	retq   

Disassembly of section .plt:

0000000000400bd0 <.plt>:
  400bd0:	ff 35 32 34 20 00    	pushq  0x203432(%rip)        # 604008 <_GLOBAL_OFFSET_TABLE_+0x8>
  400bd6:	ff 25 34 34 20 00    	jmpq   *0x203434(%rip)        # 604010 <_GLOBAL_OFFSET_TABLE_+0x10>
  400bdc:	0f 1f 40 00          	nopl   0x0(%rax)

0000000000400be0 <getenv@plt>:
  400be0:	ff 25 32 34 20 00    	jmpq   *0x203432(%rip)        # 604018 <getenv@GLIBC_2.2.5>
  400be6:	68 00 00 00 00       	pushq  $0x0
  400beb:	e9 e0 ff ff ff       	jmpq   400bd0 <.plt>

0000000000400bf0 <strcasecmp@plt>:
  400bf0:	ff 25 2a 34 20 00    	jmpq   *0x20342a(%rip)        # 604020 <strcasecmp@GLIBC_2.2.5>
  400bf6:	68 01 00 00 00       	pushq  $0x1
  400bfb:	e9 d0 ff ff ff       	jmpq   400bd0 <.plt>

0000000000400c00 <__errno_location@plt>:
  400c00:	ff 25 22 34 20 00    	jmpq   *0x203422(%rip)        # 604028 <__errno_location@GLIBC_2.2.5>
  400c06:	68 02 00 00 00       	pushq  $0x2
  400c0b:	e9 c0 ff ff ff       	jmpq   400bd0 <.plt>

0000000000400c10 <strcpy@plt>:
  400c10:	ff 25 1a 34 20 00    	jmpq   *0x20341a(%rip)        # 604030 <strcpy@GLIBC_2.2.5>
  400c16:	68 03 00 00 00       	pushq  $0x3
  400c1b:	e9 b0 ff ff ff       	jmpq   400bd0 <.plt>

0000000000400c20 <puts@plt>:
  400c20:	ff 25 12 34 20 00    	jmpq   *0x203412(%rip)        # 604038 <puts@GLIBC_2.2.5>
  400c26:	68 04 00 00 00       	pushq  $0x4
  400c2b:	e9 a0 ff ff ff       	jmpq   400bd0 <.plt>

0000000000400c30 <write@plt>:
  400c30:	ff 25 0a 34 20 00    	jmpq   *0x20340a(%rip)        # 604040 <write@GLIBC_2.2.5>
  400c36:	68 05 00 00 00       	pushq  $0x5
  400c3b:	e9 90 ff ff ff       	jmpq   400bd0 <.plt>

0000000000400c40 <__stack_chk_fail@plt>:
  400c40:	ff 25 02 34 20 00    	jmpq   *0x203402(%rip)        # 604048 <__stack_chk_fail@GLIBC_2.4>
  400c46:	68 06 00 00 00       	pushq  $0x6
  400c4b:	e9 80 ff ff ff       	jmpq   400bd0 <.plt>

0000000000400c50 <gai_strerror@plt>:
  400c50:	ff 25 fa 33 20 00    	jmpq   *0x2033fa(%rip)        # 604050 <gai_strerror@GLIBC_2.2.5>
  400c56:	68 07 00 00 00       	pushq  $0x7
  400c5b:	e9 70 ff ff ff       	jmpq   400bd0 <.plt>

0000000000400c60 <alarm@plt>:
  400c60:	ff 25 f2 33 20 00    	jmpq   *0x2033f2(%rip)        # 604058 <alarm@GLIBC_2.2.5>
  400c66:	68 08 00 00 00       	pushq  $0x8
  400c6b:	e9 60 ff ff ff       	jmpq   400bd0 <.plt>

0000000000400c70 <close@plt>:
  400c70:	ff 25 ea 33 20 00    	jmpq   *0x2033ea(%rip)        # 604060 <close@GLIBC_2.2.5>
  400c76:	68 09 00 00 00       	pushq  $0x9
  400c7b:	e9 50 ff ff ff       	jmpq   400bd0 <.plt>

0000000000400c80 <read@plt>:
  400c80:	ff 25 e2 33 20 00    	jmpq   *0x2033e2(%rip)        # 604068 <read@GLIBC_2.2.5>
  400c86:	68 0a 00 00 00       	pushq  $0xa
  400c8b:	e9 40 ff ff ff       	jmpq   400bd0 <.plt>

0000000000400c90 <__libc_start_main@plt>:
  400c90:	ff 25 da 33 20 00    	jmpq   *0x2033da(%rip)        # 604070 <__libc_start_main@GLIBC_2.2.5>
  400c96:	68 0b 00 00 00       	pushq  $0xb
  400c9b:	e9 30 ff ff ff       	jmpq   400bd0 <.plt>

0000000000400ca0 <fgets@plt>:
  400ca0:	ff 25 d2 33 20 00    	jmpq   *0x2033d2(%rip)        # 604078 <fgets@GLIBC_2.2.5>
  400ca6:	68 0c 00 00 00       	pushq  $0xc
  400cab:	e9 20 ff ff ff       	jmpq   400bd0 <.plt>

0000000000400cb0 <signal@plt>:
  400cb0:	ff 25 ca 33 20 00    	jmpq   *0x2033ca(%rip)        # 604080 <signal@GLIBC_2.2.5>
  400cb6:	68 0d 00 00 00       	pushq  $0xd
  400cbb:	e9 10 ff ff ff       	jmpq   400bd0 <.plt>

0000000000400cc0 <gethostbyname@plt>:
  400cc0:	ff 25 c2 33 20 00    	jmpq   *0x2033c2(%rip)        # 604088 <gethostbyname@GLIBC_2.2.5>
  400cc6:	68 0e 00 00 00       	pushq  $0xe
  400ccb:	e9 00 ff ff ff       	jmpq   400bd0 <.plt>

0000000000400cd0 <__memmove_chk@plt>:
  400cd0:	ff 25 ba 33 20 00    	jmpq   *0x2033ba(%rip)        # 604090 <__memmove_chk@GLIBC_2.3.4>
  400cd6:	68 0f 00 00 00       	pushq  $0xf
  400cdb:	e9 f0 fe ff ff       	jmpq   400bd0 <.plt>

0000000000400ce0 <strtol@plt>:
  400ce0:	ff 25 b2 33 20 00    	jmpq   *0x2033b2(%rip)        # 604098 <strtol@GLIBC_2.2.5>
  400ce6:	68 10 00 00 00       	pushq  $0x10
  400ceb:	e9 e0 fe ff ff       	jmpq   400bd0 <.plt>

0000000000400cf0 <fflush@plt>:
  400cf0:	ff 25 aa 33 20 00    	jmpq   *0x2033aa(%rip)        # 6040a0 <fflush@GLIBC_2.2.5>
  400cf6:	68 11 00 00 00       	pushq  $0x11
  400cfb:	e9 d0 fe ff ff       	jmpq   400bd0 <.plt>

0000000000400d00 <__isoc99_sscanf@plt>:
  400d00:	ff 25 a2 33 20 00    	jmpq   *0x2033a2(%rip)        # 6040a8 <__isoc99_sscanf@GLIBC_2.7>
  400d06:	68 12 00 00 00       	pushq  $0x12
  400d0b:	e9 c0 fe ff ff       	jmpq   400bd0 <.plt>

0000000000400d10 <__printf_chk@plt>:
  400d10:	ff 25 9a 33 20 00    	jmpq   *0x20339a(%rip)        # 6040b0 <__printf_chk@GLIBC_2.3.4>
  400d16:	68 13 00 00 00       	pushq  $0x13
  400d1b:	e9 b0 fe ff ff       	jmpq   400bd0 <.plt>

0000000000400d20 <fopen@plt>:
  400d20:	ff 25 92 33 20 00    	jmpq   *0x203392(%rip)        # 6040b8 <fopen@GLIBC_2.2.5>
  400d26:	68 14 00 00 00       	pushq  $0x14
  400d2b:	e9 a0 fe ff ff       	jmpq   400bd0 <.plt>

0000000000400d30 <gethostname@plt>:
  400d30:	ff 25 8a 33 20 00    	jmpq   *0x20338a(%rip)        # 6040c0 <gethostname@GLIBC_2.2.5>
  400d36:	68 15 00 00 00       	pushq  $0x15
  400d3b:	e9 90 fe ff ff       	jmpq   400bd0 <.plt>

0000000000400d40 <exit@plt>:
  400d40:	ff 25 82 33 20 00    	jmpq   *0x203382(%rip)        # 6040c8 <exit@GLIBC_2.2.5>
  400d46:	68 16 00 00 00       	pushq  $0x16
  400d4b:	e9 80 fe ff ff       	jmpq   400bd0 <.plt>

0000000000400d50 <connect@plt>:
  400d50:	ff 25 7a 33 20 00    	jmpq   *0x20337a(%rip)        # 6040d0 <connect@GLIBC_2.2.5>
  400d56:	68 17 00 00 00       	pushq  $0x17
  400d5b:	e9 70 fe ff ff       	jmpq   400bd0 <.plt>

0000000000400d60 <fwrite@plt>:
  400d60:	ff 25 72 33 20 00    	jmpq   *0x203372(%rip)        # 6040d8 <fwrite@GLIBC_2.2.5>
  400d66:	68 18 00 00 00       	pushq  $0x18
  400d6b:	e9 60 fe ff ff       	jmpq   400bd0 <.plt>

0000000000400d70 <__fprintf_chk@plt>:
  400d70:	ff 25 6a 33 20 00    	jmpq   *0x20336a(%rip)        # 6040e0 <__fprintf_chk@GLIBC_2.3.4>
  400d76:	68 19 00 00 00       	pushq  $0x19
  400d7b:	e9 50 fe ff ff       	jmpq   400bd0 <.plt>

0000000000400d80 <getaddrinfo@plt>:
  400d80:	ff 25 62 33 20 00    	jmpq   *0x203362(%rip)        # 6040e8 <getaddrinfo@GLIBC_2.2.5>
  400d86:	68 1a 00 00 00       	pushq  $0x1a
  400d8b:	e9 40 fe ff ff       	jmpq   400bd0 <.plt>

0000000000400d90 <sleep@plt>:
  400d90:	ff 25 5a 33 20 00    	jmpq   *0x20335a(%rip)        # 6040f0 <sleep@GLIBC_2.2.5>
  400d96:	68 1b 00 00 00       	pushq  $0x1b
  400d9b:	e9 30 fe ff ff       	jmpq   400bd0 <.plt>

0000000000400da0 <__ctype_b_loc@plt>:
  400da0:	ff 25 52 33 20 00    	jmpq   *0x203352(%rip)        # 6040f8 <__ctype_b_loc@GLIBC_2.3>
  400da6:	68 1c 00 00 00       	pushq  $0x1c
  400dab:	e9 20 fe ff ff       	jmpq   400bd0 <.plt>

0000000000400db0 <__sprintf_chk@plt>:
  400db0:	ff 25 4a 33 20 00    	jmpq   *0x20334a(%rip)        # 604100 <__sprintf_chk@GLIBC_2.3.4>
  400db6:	68 1d 00 00 00       	pushq  $0x1d
  400dbb:	e9 10 fe ff ff       	jmpq   400bd0 <.plt>

0000000000400dc0 <socket@plt>:
  400dc0:	ff 25 42 33 20 00    	jmpq   *0x203342(%rip)        # 604108 <socket@GLIBC_2.2.5>
  400dc6:	68 1e 00 00 00       	pushq  $0x1e
  400dcb:	e9 00 fe ff ff       	jmpq   400bd0 <.plt>

Disassembly of section .plt.got:

0000000000400dd0 <__gmon_start__@plt>:
  400dd0:	ff 25 22 32 20 00    	jmpq   *0x203222(%rip)        # 603ff8 <__gmon_start__>
  400dd6:	66 90                	xchg   %ax,%ax

Disassembly of section .text:

0000000000400de0 <_start>:
  400de0:	31 ed                	xor    %ebp,%ebp
  400de2:	49 89 d1             	mov    %rdx,%r9
  400de5:	5e                   	pop    %rsi
  400de6:	48 89 e2             	mov    %rsp,%rdx
  400de9:	48 83 e4 f0          	and    $0xfffffffffffffff0,%rsp
  400ded:	50                   	push   %rax
  400dee:	54                   	push   %rsp
  400def:	49 c7 c0 00 27 40 00 	mov    $0x402700,%r8
  400df6:	48 c7 c1 90 26 40 00 	mov    $0x402690,%rcx
  400dfd:	48 c7 c7 d6 0e 40 00 	mov    $0x400ed6,%rdi
  400e04:	e8 87 fe ff ff       	callq  400c90 <__libc_start_main@plt>
  400e09:	f4                   	hlt    
  400e0a:	66 0f 1f 44 00 00    	nopw   0x0(%rax,%rax,1)

0000000000400e10 <deregister_tm_clones>:
  400e10:	b8 a7 4b 60 00       	mov    $0x604ba7,%eax
  400e15:	55                   	push   %rbp
  400e16:	48 2d a0 4b 60 00    	sub    $0x604ba0,%rax
  400e1c:	48 83 f8 0e          	cmp    $0xe,%rax
  400e20:	48 89 e5             	mov    %rsp,%rbp
  400e23:	76 1b                	jbe    400e40 <deregister_tm_clones+0x30>
  400e25:	b8 00 00 00 00       	mov    $0x0,%eax
  400e2a:	48 85 c0             	test   %rax,%rax
  400e2d:	74 11                	je     400e40 <deregister_tm_clones+0x30>
  400e2f:	5d                   	pop    %rbp
  400e30:	bf a0 4b 60 00       	mov    $0x604ba0,%edi
  400e35:	ff e0                	jmpq   *%rax
  400e37:	66 0f 1f 84 00 00 00 	nopw   0x0(%rax,%rax,1)
  400e3e:	00 00 
  400e40:	5d                   	pop    %rbp
  400e41:	c3                   	retq   
  400e42:	0f 1f 40 00          	nopl   0x0(%rax)
  400e46:	66 2e 0f 1f 84 00 00 	nopw   %cs:0x0(%rax,%rax,1)
  400e4d:	00 00 00 

0000000000400e50 <register_tm_clones>:
  400e50:	be a0 4b 60 00       	mov    $0x604ba0,%esi
  400e55:	55                   	push   %rbp
  400e56:	48 81 ee a0 4b 60 00 	sub    $0x604ba0,%rsi
  400e5d:	48 c1 fe 03          	sar    $0x3,%rsi
  400e61:	48 89 e5             	mov    %rsp,%rbp
  400e64:	48 89 f0             	mov    %rsi,%rax
  400e67:	48 c1 e8 3f          	shr    $0x3f,%rax
  400e6b:	48 01 c6             	add    %rax,%rsi
  400e6e:	48 d1 fe             	sar    %rsi
  400e71:	74 15                	je     400e88 <register_tm_clones+0x38>
  400e73:	b8 00 00 00 00       	mov    $0x0,%eax
  400e78:	48 85 c0             	test   %rax,%rax
  400e7b:	74 0b                	je     400e88 <register_tm_clones+0x38>
  400e7d:	5d                   	pop    %rbp
  400e7e:	bf a0 4b 60 00       	mov    $0x604ba0,%edi
  400e83:	ff e0                	jmpq   *%rax
  400e85:	0f 1f 00             	nopl   (%rax)
  400e88:	5d                   	pop    %rbp
  400e89:	c3                   	retq   
  400e8a:	66 0f 1f 44 00 00    	nopw   0x0(%rax,%rax,1)

0000000000400e90 <__do_global_dtors_aux>:
  400e90:	80 3d 31 3d 20 00 00 	cmpb   $0x0,0x203d31(%rip)        # 604bc8 <completed.7594>
  400e97:	75 11                	jne    400eaa <__do_global_dtors_aux+0x1a>
  400e99:	55                   	push   %rbp
  400e9a:	48 89 e5             	mov    %rsp,%rbp
  400e9d:	e8 6e ff ff ff       	callq  400e10 <deregister_tm_clones>
  400ea2:	5d                   	pop    %rbp
  400ea3:	c6 05 1e 3d 20 00 01 	movb   $0x1,0x203d1e(%rip)        # 604bc8 <completed.7594>
  400eaa:	f3 c3                	repz retq 
  400eac:	0f 1f 40 00          	nopl   0x0(%rax)

0000000000400eb0 <frame_dummy>:
  400eb0:	bf 20 3e 60 00       	mov    $0x603e20,%edi
  400eb5:	48 83 3f 00          	cmpq   $0x0,(%rdi)
  400eb9:	75 05                	jne    400ec0 <frame_dummy+0x10>
  400ebb:	eb 93                	jmp    400e50 <register_tm_clones>
  400ebd:	0f 1f 00             	nopl   (%rax)
  400ec0:	b8 00 00 00 00       	mov    $0x0,%eax
  400ec5:	48 85 c0             	test   %rax,%rax
  400ec8:	74 f1                	je     400ebb <frame_dummy+0xb>
  400eca:	55                   	push   %rbp
  400ecb:	48 89 e5             	mov    %rsp,%rbp
  400ece:	ff d0                	callq  *%rax
  400ed0:	5d                   	pop    %rbp
  400ed1:	e9 7a ff ff ff       	jmpq   400e50 <register_tm_clones>

0000000000400ed6 <main>:
  400ed6:	53                   	push   %rbx
  400ed7:	83 ff 01             	cmp    $0x1,%edi
  400eda:	75 10                	jne    400eec <main+0x16>
  400edc:	48 8b 05 cd 3c 20 00 	mov    0x203ccd(%rip),%rax        # 604bb0 <stdin@@GLIBC_2.2.5>
  400ee3:	48 89 05 e6 3c 20 00 	mov    %rax,0x203ce6(%rip)        # 604bd0 <infile>
  400eea:	eb 63                	jmp    400f4f <main+0x79>
  400eec:	48 89 f3             	mov    %rsi,%rbx
  400eef:	83 ff 02             	cmp    $0x2,%edi
  400ef2:	75 3a                	jne    400f2e <main+0x58>
  400ef4:	48 8b 7e 08          	mov    0x8(%rsi),%rdi
  400ef8:	be 24 27 40 00       	mov    $0x402724,%esi
  400efd:	e8 1e fe ff ff       	callq  400d20 <fopen@plt>
  400f02:	48 89 05 c7 3c 20 00 	mov    %rax,0x203cc7(%rip)        # 604bd0 <infile>
  400f09:	48 85 c0             	test   %rax,%rax
  400f0c:	75 41                	jne    400f4f <main+0x79>
  400f0e:	48 8b 4b 08          	mov    0x8(%rbx),%rcx
  400f12:	48 8b 13             	mov    (%rbx),%rdx
  400f15:	be 26 27 40 00       	mov    $0x402726,%esi
  400f1a:	bf 01 00 00 00       	mov    $0x1,%edi
  400f1f:	e8 ec fd ff ff       	callq  400d10 <__printf_chk@plt>
  400f24:	bf 08 00 00 00       	mov    $0x8,%edi
  400f29:	e8 12 fe ff ff       	callq  400d40 <exit@plt>
  400f2e:	48 8b 16             	mov    (%rsi),%rdx
  400f31:	be 43 27 40 00       	mov    $0x402743,%esi
  400f36:	bf 01 00 00 00       	mov    $0x1,%edi
  400f3b:	b8 00 00 00 00       	mov    $0x0,%eax
  400f40:	e8 cb fd ff ff       	callq  400d10 <__printf_chk@plt>
  400f45:	bf 08 00 00 00       	mov    $0x8,%edi
  400f4a:	e8 f1 fd ff ff       	callq  400d40 <exit@plt>
  400f4f:	e8 78 06 00 00       	callq  4015cc <initialize_bomb>
  400f54:	bf 98 27 40 00       	mov    $0x402798,%edi
  400f59:	e8 c2 fc ff ff       	callq  400c20 <puts@plt>
  400f5e:	bf d8 27 40 00       	mov    $0x4027d8,%edi
  400f63:	e8 b8 fc ff ff       	callq  400c20 <puts@plt>
  400f68:	e8 f5 09 00 00       	callq  401962 <read_line>
  400f6d:	48 89 c7             	mov    %rax,%rdi
  400f70:	e8 98 00 00 00       	callq  40100d <phase_1>
  400f75:	e8 0e 0b 00 00       	callq  401a88 <phase_defused>
  400f7a:	bf 18 28 40 00       	mov    $0x402818,%edi
  400f7f:	e8 9c fc ff ff       	callq  400c20 <puts@plt>
  400f84:	e8 d9 09 00 00       	callq  401962 <read_line>
  400f89:	48 89 c7             	mov    %rax,%rdi
  400f8c:	e8 98 00 00 00       	callq  401029 <phase_2>
  400f91:	e8 f2 0a 00 00       	callq  401a88 <phase_defused>
  400f96:	bf 5d 27 40 00       	mov    $0x40275d,%edi
  400f9b:	e8 80 fc ff ff       	callq  400c20 <puts@plt>
  400fa0:	e8 bd 09 00 00       	callq  401962 <read_line>
  400fa5:	48 89 c7             	mov    %rax,%rdi
  400fa8:	e8 ef 00 00 00       	callq  40109c <phase_3>
  400fad:	e8 d6 0a 00 00       	callq  401a88 <phase_defused>
  400fb2:	bf 48 28 40 00       	mov    $0x402848,%edi
  400fb7:	e8 64 fc ff ff       	callq  400c20 <puts@plt>
  400fbc:	e8 a1 09 00 00       	callq  401962 <read_line>
  400fc1:	48 89 c7             	mov    %rax,%rdi
  400fc4:	e8 ba 01 00 00       	callq  401183 <phase_4>
  400fc9:	e8 ba 0a 00 00       	callq  401a88 <phase_defused>
  400fce:	bf 77 27 40 00       	mov    $0x402777,%edi
  400fd3:	e8 48 fc ff ff       	callq  400c20 <puts@plt>
  400fd8:	e8 85 09 00 00       	callq  401962 <read_line>
  400fdd:	48 89 c7             	mov    %rax,%rdi
  400fe0:	e8 0b 02 00 00       	callq  4011f0 <phase_5>
  400fe5:	e8 9e 0a 00 00       	callq  401a88 <phase_defused>
  400fea:	bf 68 28 40 00       	mov    $0x402868,%edi
  400fef:	e8 2c fc ff ff       	callq  400c20 <puts@plt>
  400ff4:	e8 69 09 00 00       	callq  401962 <read_line>
  400ff9:	48 89 c7             	mov    %rax,%rdi
  400ffc:	e8 39 02 00 00       	callq  40123a <phase_6>
  401001:	e8 82 0a 00 00       	callq  401a88 <phase_defused>
  401006:	b8 00 00 00 00       	mov    $0x0,%eax
  40100b:	5b                   	pop    %rbx
  40100c:	c3                   	retq   

000000000040100d <phase_1>:
  40100d:	48 83 ec 08          	sub    $0x8,%rsp
  401011:	be 90 28 40 00       	mov    $0x402890,%esi
  401016:	e8 ae 04 00 00       	callq  4014c9 <strings_check>
  40101b:	85 c0                	test   %eax,%eax
  40101d:	74 05                	je     401024 <phase_1+0x17>
  40101f:	e8 d3 08 00 00       	callq  4018f7 <explode_bomb>
  401024:	48 83 c4 08          	add    $0x8,%rsp
  401028:	c3                   	retq   

0000000000401029 <phase_2>:
  401029:	55                   	push   %rbp
  40102a:	53                   	push   %rbx
  40102b:	48 83 ec 28          	sub    $0x28,%rsp
  40102f:	64 48 8b 04 25 28 00 	mov    %fs:0x28,%rax
  401036:	00 00 
  401038:	48 89 44 24 18       	mov    %rax,0x18(%rsp)
  40103d:	31 c0                	xor    %eax,%eax
  40103f:	48 89 e6             	mov    %rsp,%rsi
  401042:	e8 dc 08 00 00       	callq  401923 <read_six_numbers>
  401047:	83 3c 24 01          	cmpl   $0x1,(%rsp)
  40104b:	7f 05                	jg     401052 <phase_2+0x29>
  40104d:	e8 a5 08 00 00       	callq  4018f7 <explode_bomb>
  401052:	48 89 e5             	mov    %rsp,%rbp
  401055:	bb 01 00 00 00       	mov    $0x1,%ebx
  40105a:	8b 45 00             	mov    0x0(%rbp),%eax
  40105d:	01 c0                	add    %eax,%eax
  40105f:	89 da                	mov    %ebx,%edx
  401061:	c1 ea 1f             	shr    $0x1f,%edx
  401064:	01 da                	add    %ebx,%edx
  401066:	d1 fa                	sar    %edx
  401068:	29 d0                	sub    %edx,%eax
  40106a:	39 45 04             	cmp    %eax,0x4(%rbp)
  40106d:	74 05                	je     401074 <phase_2+0x4b>
  40106f:	e8 83 08 00 00       	callq  4018f7 <explode_bomb>
  401074:	83 c3 01             	add    $0x1,%ebx
  401077:	48 83 c5 04          	add    $0x4,%rbp
  40107b:	83 fb 06             	cmp    $0x6,%ebx
  40107e:	75 da                	jne    40105a <phase_2+0x31>
  401080:	48 8b 44 24 18       	mov    0x18(%rsp),%rax
  401085:	64 48 33 04 25 28 00 	xor    %fs:0x28,%rax
  40108c:	00 00 
  40108e:	74 05                	je     401095 <phase_2+0x6c>
  401090:	e8 ab fb ff ff       	callq  400c40 <__stack_chk_fail@plt>
  401095:	48 83 c4 28          	add    $0x28,%rsp
  401099:	5b                   	pop    %rbx
  40109a:	5d                   	pop    %rbp
  40109b:	c3                   	retq   

000000000040109c <phase_3>:
  40109c:	48 83 ec 18          	sub    $0x18,%rsp
  4010a0:	64 48 8b 04 25 28 00 	mov    %fs:0x28,%rax
  4010a7:	00 00 
  4010a9:	48 89 44 24 08       	mov    %rax,0x8(%rsp)
  4010ae:	31 c0                	xor    %eax,%eax
  4010b0:	48 8d 4c 24 04       	lea    0x4(%rsp),%rcx
  4010b5:	48 89 e2             	mov    %rsp,%rdx
  4010b8:	be de 2b 40 00       	mov    $0x402bde,%esi
  4010bd:	e8 3e fc ff ff       	callq  400d00 <__isoc99_sscanf@plt>
  4010c2:	83 f8 01             	cmp    $0x1,%eax
  4010c5:	7f 05                	jg     4010cc <phase_3+0x30>
  4010c7:	e8 2b 08 00 00       	callq  4018f7 <explode_bomb>
  4010cc:	83 3c 24 07          	cmpl   $0x7,(%rsp)
  4010d0:	77 3b                	ja     40110d <phase_3+0x71>
  4010d2:	8b 04 24             	mov    (%rsp),%eax
  4010d5:	ff 24 c5 00 29 40 00 	jmpq   *0x402900(,%rax,8)
  4010dc:	b8 d6 04 00 00       	mov    $0x4d6,%eax
  4010e1:	eb 3b                	jmp    40111e <phase_3+0x82>
  4010e3:	b8 f3 02 00 00       	mov    $0x2f3,%eax
  4010e8:	eb 34                	jmp    40111e <phase_3+0x82>
  4010ea:	b8 b0 00 00 00       	mov    $0xb0,%eax
  4010ef:	eb 2d                	jmp    40111e <phase_3+0x82>
  4010f1:	b8 d8 01 00 00       	mov    $0x1d8,%eax
  4010f6:	eb 26                	jmp    40111e <phase_3+0x82>
  4010f8:	b8 f2 00 00 00       	mov    $0xf2,%eax
  4010fd:	eb 1f                	jmp    40111e <phase_3+0x82>
  4010ff:	b8 8d 07 00 00       	mov    $0x78d,%eax
  401104:	eb 18                	jmp    40111e <phase_3+0x82>
  401106:	b8 b8 0a 00 00       	mov    $0xab8,%eax
  40110b:	eb 11                	jmp    40111e <phase_3+0x82>
  40110d:	e8 e5 07 00 00       	callq  4018f7 <explode_bomb>
  401112:	b8 00 00 00 00       	mov    $0x0,%eax
  401117:	eb 05                	jmp    40111e <phase_3+0x82>
  401119:	b8 60 0e 00 00       	mov    $0xe60,%eax
  40111e:	05 9a 00 00 00       	add    $0x9a,%eax
  401123:	3b 44 24 04          	cmp    0x4(%rsp),%eax
  401127:	74 05                	je     40112e <phase_3+0x92>
  401129:	e8 c9 07 00 00       	callq  4018f7 <explode_bomb>
  40112e:	48 8b 44 24 08       	mov    0x8(%rsp),%rax
  401133:	64 48 33 04 25 28 00 	xor    %fs:0x28,%rax
  40113a:	00 00 
  40113c:	74 05                	je     401143 <phase_3+0xa7>
  40113e:	e8 fd fa ff ff       	callq  400c40 <__stack_chk_fail@plt>
  401143:	48 83 c4 18          	add    $0x18,%rsp
  401147:	c3                   	retq   

0000000000401148 <func4>:
  401148:	85 ff                	test   %edi,%edi
  40114a:	7e 2b                	jle    401177 <func4+0x2f>
  40114c:	89 f0                	mov    %esi,%eax
  40114e:	83 ff 01             	cmp    $0x1,%edi
  401151:	74 2e                	je     401181 <func4+0x39>
  401153:	41 54                	push   %r12
  401155:	55                   	push   %rbp
  401156:	53                   	push   %rbx
  401157:	89 f5                	mov    %esi,%ebp
  401159:	89 fb                	mov    %edi,%ebx
  40115b:	8d 7f ff             	lea    -0x1(%rdi),%edi
  40115e:	e8 e5 ff ff ff       	callq  401148 <func4>
  401163:	44 8d 64 05 00       	lea    0x0(%rbp,%rax,1),%r12d
  401168:	8d 7b fe             	lea    -0x2(%rbx),%edi
  40116b:	89 ee                	mov    %ebp,%esi
  40116d:	e8 d6 ff ff ff       	callq  401148 <func4>
  401172:	44 01 e0             	add    %r12d,%eax
  401175:	eb 06                	jmp    40117d <func4+0x35>
  401177:	b8 00 00 00 00       	mov    $0x0,%eax
  40117c:	c3                   	retq   
  40117d:	5b                   	pop    %rbx
  40117e:	5d                   	pop    %rbp
  40117f:	41 5c                	pop    %r12
  401181:	f3 c3                	repz retq 

0000000000401183 <phase_4>:
  401183:	48 83 ec 18          	sub    $0x18,%rsp
  401187:	64 48 8b 04 25 28 00 	mov    %fs:0x28,%rax
  40118e:	00 00 
  401190:	48 89 44 24 08       	mov    %rax,0x8(%rsp)
  401195:	31 c0                	xor    %eax,%eax
  401197:	48 89 e1             	mov    %rsp,%rcx
  40119a:	48 8d 54 24 04       	lea    0x4(%rsp),%rdx
  40119f:	be de 2b 40 00       	mov    $0x402bde,%esi
  4011a4:	e8 57 fb ff ff       	callq  400d00 <__isoc99_sscanf@plt>
  4011a9:	83 f8 02             	cmp    $0x2,%eax
  4011ac:	75 0b                	jne    4011b9 <phase_4+0x36>
  4011ae:	8b 04 24             	mov    (%rsp),%eax
  4011b1:	83 e8 02             	sub    $0x2,%eax
  4011b4:	83 f8 02             	cmp    $0x2,%eax
  4011b7:	76 05                	jbe    4011be <phase_4+0x3b>
  4011b9:	e8 39 07 00 00       	callq  4018f7 <explode_bomb>
  4011be:	8b 34 24             	mov    (%rsp),%esi
  4011c1:	bf 05 00 00 00       	mov    $0x5,%edi
  4011c6:	e8 7d ff ff ff       	callq  401148 <func4>
  4011cb:	3b 44 24 04          	cmp    0x4(%rsp),%eax
  4011cf:	74 05                	je     4011d6 <phase_4+0x53>
  4011d1:	e8 21 07 00 00       	callq  4018f7 <explode_bomb>
  4011d6:	48 8b 44 24 08       	mov    0x8(%rsp),%rax
  4011db:	64 48 33 04 25 28 00 	xor    %fs:0x28,%rax
  4011e2:	00 00 
  4011e4:	74 05                	je     4011eb <phase_4+0x68>
  4011e6:	e8 55 fa ff ff       	callq  400c40 <__stack_chk_fail@plt>
  4011eb:	48 83 c4 18          	add    $0x18,%rsp
  4011ef:	c3                   	retq   

00000000004011f0 <phase_5>:
  4011f0:	53                   	push   %rbx
  4011f1:	48 89 fb             	mov    %rdi,%rbx
  4011f4:	e8 4b 02 00 00       	callq  401444 <string_length>
  4011f9:	83 f8 06             	cmp    $0x6,%eax
  4011fc:	74 05                	je     401203 <phase_5+0x13>
  4011fe:	e8 f4 06 00 00       	callq  4018f7 <explode_bomb>
  401203:	48 89 da             	mov    %rbx,%rdx
  401206:	48 8d 7b 06          	lea    0x6(%rbx),%rdi
  40120a:	b9 00 00 00 00       	mov    $0x0,%ecx
  40120f:	0f be 02             	movsbl (%rdx),%eax
  401212:	8d 70 a9             	lea    -0x57(%rax),%esi
  401215:	83 f8 61             	cmp    $0x61,%eax
  401218:	0f 4d c6             	cmovge %esi,%eax
  40121b:	83 e0 0f             	and    $0xf,%eax
  40121e:	03 0c 85 40 29 40 00 	add    0x402940(,%rax,4),%ecx
  401225:	48 83 c2 01          	add    $0x1,%rdx
  401229:	48 39 fa             	cmp    %rdi,%rdx
  40122c:	75 e1                	jne    40120f <phase_5+0x1f>
  40122e:	83 f9 3a             	cmp    $0x3a,%ecx
  401231:	74 05                	je     401238 <phase_5+0x48>
  401233:	e8 bf 06 00 00       	callq  4018f7 <explode_bomb>
  401238:	5b                   	pop    %rbx
  401239:	c3                   	retq   

000000000040123a <phase_6>:
  40123a:	41 55                	push   %r13
  40123c:	41 54                	push   %r12
  40123e:	55                   	push   %rbp
  40123f:	53                   	push   %rbx
  401240:	48 83 ec 68          	sub    $0x68,%rsp
  401244:	64 48 8b 04 25 28 00 	mov    %fs:0x28,%rax
  40124b:	00 00 
  40124d:	48 89 44 24 58       	mov    %rax,0x58(%rsp)
  401252:	31 c0                	xor    %eax,%eax
  401254:	48 89 e6             	mov    %rsp,%rsi
  401257:	e8 c7 06 00 00       	callq  401923 <read_six_numbers>
  40125c:	49 89 e4             	mov    %rsp,%r12
  40125f:	41 bd 00 00 00 00    	mov    $0x0,%r13d
  401265:	4c 89 e5             	mov    %r12,%rbp
  401268:	41 8b 04 24          	mov    (%r12),%eax
  40126c:	83 e8 01             	sub    $0x1,%eax
  40126f:	83 f8 05             	cmp    $0x5,%eax
  401272:	76 05                	jbe    401279 <phase_6+0x3f>
  401274:	e8 7e 06 00 00       	callq  4018f7 <explode_bomb>
  401279:	41 83 c5 01          	add    $0x1,%r13d
  40127d:	41 83 fd 06          	cmp    $0x6,%r13d
  401281:	74 3d                	je     4012c0 <phase_6+0x86>
  401283:	44 89 eb             	mov    %r13d,%ebx
  401286:	48 63 c3             	movslq %ebx,%rax
  401289:	8b 04 84             	mov    (%rsp,%rax,4),%eax
  40128c:	39 45 00             	cmp    %eax,0x0(%rbp)
  40128f:	75 05                	jne    401296 <phase_6+0x5c>
  401291:	e8 61 06 00 00       	callq  4018f7 <explode_bomb>
  401296:	83 c3 01             	add    $0x1,%ebx
  401299:	83 fb 05             	cmp    $0x5,%ebx
  40129c:	7e e8                	jle    401286 <phase_6+0x4c>
  40129e:	49 83 c4 04          	add    $0x4,%r12
  4012a2:	eb c1                	jmp    401265 <phase_6+0x2b>
  4012a4:	48 8b 52 08          	mov    0x8(%rdx),%rdx
  4012a8:	83 c0 01             	add    $0x1,%eax
  4012ab:	39 c8                	cmp    %ecx,%eax
  4012ad:	75 f5                	jne    4012a4 <phase_6+0x6a>
  4012af:	48 89 54 74 20       	mov    %rdx,0x20(%rsp,%rsi,2)
  4012b4:	48 83 c6 04          	add    $0x4,%rsi
  4012b8:	48 83 fe 18          	cmp    $0x18,%rsi
  4012bc:	75 07                	jne    4012c5 <phase_6+0x8b>
  4012be:	eb 19                	jmp    4012d9 <phase_6+0x9f>
  4012c0:	be 00 00 00 00       	mov    $0x0,%esi
  4012c5:	8b 0c 34             	mov    (%rsp,%rsi,1),%ecx
  4012c8:	b8 01 00 00 00       	mov    $0x1,%eax
  4012cd:	ba 20 43 60 00       	mov    $0x604320,%edx
  4012d2:	83 f9 01             	cmp    $0x1,%ecx
  4012d5:	7f cd                	jg     4012a4 <phase_6+0x6a>
  4012d7:	eb d6                	jmp    4012af <phase_6+0x75>
  4012d9:	48 8b 5c 24 20       	mov    0x20(%rsp),%rbx
  4012de:	48 8d 44 24 20       	lea    0x20(%rsp),%rax
  4012e3:	48 8d 74 24 48       	lea    0x48(%rsp),%rsi
  4012e8:	48 89 d9             	mov    %rbx,%rcx
  4012eb:	48 8b 50 08          	mov    0x8(%rax),%rdx
  4012ef:	48 89 51 08          	mov    %rdx,0x8(%rcx)
  4012f3:	48 83 c0 08          	add    $0x8,%rax
  4012f7:	48 89 d1             	mov    %rdx,%rcx
  4012fa:	48 39 f0             	cmp    %rsi,%rax
  4012fd:	75 ec                	jne    4012eb <phase_6+0xb1>
  4012ff:	48 c7 42 08 00 00 00 	movq   $0x0,0x8(%rdx)
  401306:	00 
  401307:	bd 05 00 00 00       	mov    $0x5,%ebp
  40130c:	48 8b 43 08          	mov    0x8(%rbx),%rax
  401310:	8b 00                	mov    (%rax),%eax
  401312:	39 03                	cmp    %eax,(%rbx)
  401314:	7e 05                	jle    40131b <phase_6+0xe1>
  401316:	e8 dc 05 00 00       	callq  4018f7 <explode_bomb>
  40131b:	48 8b 5b 08          	mov    0x8(%rbx),%rbx
  40131f:	83 ed 01             	sub    $0x1,%ebp
  401322:	75 e8                	jne    40130c <phase_6+0xd2>
  401324:	48 8b 44 24 58       	mov    0x58(%rsp),%rax
  401329:	64 48 33 04 25 28 00 	xor    %fs:0x28,%rax
  401330:	00 00 
  401332:	74 05                	je     401339 <phase_6+0xff>
  401334:	e8 07 f9 ff ff       	callq  400c40 <__stack_chk_fail@plt>
  401339:	48 83 c4 68          	add    $0x68,%rsp
  40133d:	5b                   	pop    %rbx
  40133e:	5d                   	pop    %rbp
  40133f:	41 5c                	pop    %r12
  401341:	41 5d                	pop    %r13
  401343:	c3                   	retq   

0000000000401344 <fun7>:
  401344:	48 83 ec 08          	sub    $0x8,%rsp
  401348:	48 85 ff             	test   %rdi,%rdi
  40134b:	74 2b                	je     401378 <fun7+0x34>
  40134d:	8b 57 10             	mov    0x10(%rdi),%edx
  401350:	39 f2                	cmp    %esi,%edx
  401352:	7e 0c                	jle    401360 <fun7+0x1c>
  401354:	48 8b 3f             	mov    (%rdi),%rdi
  401357:	e8 e8 ff ff ff       	callq  401344 <fun7>
  40135c:	01 c0                	add    %eax,%eax
  40135e:	eb 1d                	jmp    40137d <fun7+0x39>
  401360:	b8 00 00 00 00       	mov    $0x0,%eax
  401365:	39 f2                	cmp    %esi,%edx
  401367:	74 14                	je     40137d <fun7+0x39>
  401369:	48 8b 7f 08          	mov    0x8(%rdi),%rdi
  40136d:	e8 d2 ff ff ff       	callq  401344 <fun7>
  401372:	8d 44 00 01          	lea    0x1(%rax,%rax,1),%eax
  401376:	eb 05                	jmp    40137d <fun7+0x39>
  401378:	b8 ff ff ff ff       	mov    $0xffffffff,%eax
  40137d:	48 83 c4 08          	add    $0x8,%rsp
  401381:	c3                   	retq   

0000000000401382 <secret_phase>:
  401382:	53                   	push   %rbx
  401383:	e8 da 05 00 00       	callq  401962 <read_line>
  401388:	ba 0a 00 00 00       	mov    $0xa,%edx
  40138d:	be 00 00 00 00       	mov    $0x0,%esi
  401392:	48 89 c7             	mov    %rax,%rdi
  401395:	e8 46 f9 ff ff       	callq  400ce0 <strtol@plt>
  40139a:	48 89 c3             	mov    %rax,%rbx
  40139d:	8d 40 fd             	lea    -0x3(%rax),%eax
  4013a0:	3d 97 00 00 00       	cmp    $0x97,%eax
  4013a5:	76 05                	jbe    4013ac <secret_phase+0x2a>
  4013a7:	e8 4b 05 00 00       	callq  4018f7 <explode_bomb>
  4013ac:	89 de                	mov    %ebx,%esi
  4013ae:	bf 40 41 60 00       	mov    $0x604140,%edi
  4013b3:	e8 8c ff ff ff       	callq  401344 <fun7>
  4013b8:	83 f8 02             	cmp    $0x2,%eax
  4013bb:	74 05                	je     4013c2 <secret_phase+0x40>
  4013bd:	e8 35 05 00 00       	callq  4018f7 <explode_bomb>
  4013c2:	bf d0 28 40 00       	mov    $0x4028d0,%edi
  4013c7:	e8 54 f8 ff ff       	callq  400c20 <puts@plt>
  4013cc:	e8 b7 06 00 00       	callq  401a88 <phase_defused>
  4013d1:	5b                   	pop    %rbx
  4013d2:	c3                   	retq   

00000000004013d3 <sig_handler>:
  4013d3:	48 83 ec 08          	sub    $0x8,%rsp
  4013d7:	be 6b 2b 40 00       	mov    $0x402b6b,%esi
  4013dc:	bf 01 00 00 00       	mov    $0x1,%edi
  4013e1:	b8 00 00 00 00       	mov    $0x0,%eax
  4013e6:	e8 25 f9 ff ff       	callq  400d10 <__printf_chk@plt>
  4013eb:	48 8b 3d ae 37 20 00 	mov    0x2037ae(%rip),%rdi        # 604ba0 <stdout@@GLIBC_2.2.5>
  4013f2:	e8 f9 f8 ff ff       	callq  400cf0 <fflush@plt>
  4013f7:	bf 01 00 00 00       	mov    $0x1,%edi
  4013fc:	e8 8f f9 ff ff       	callq  400d90 <sleep@plt>
  401401:	bf 7b 2b 40 00       	mov    $0x402b7b,%edi
  401406:	e8 15 f8 ff ff       	callq  400c20 <puts@plt>
  40140b:	bf 01 00 00 00       	mov    $0x1,%edi
  401410:	e8 7b f9 ff ff       	callq  400d90 <sleep@plt>
  401415:	bf 10 00 00 00       	mov    $0x10,%edi
  40141a:	e8 21 f9 ff ff       	callq  400d40 <exit@plt>

000000000040141f <invalid_phase>:
  40141f:	48 83 ec 08          	sub    $0x8,%rsp
  401423:	48 89 fa             	mov    %rdi,%rdx
  401426:	be 86 2b 40 00       	mov    $0x402b86,%esi
  40142b:	bf 01 00 00 00       	mov    $0x1,%edi
  401430:	b8 00 00 00 00       	mov    $0x0,%eax
  401435:	e8 d6 f8 ff ff       	callq  400d10 <__printf_chk@plt>
  40143a:	bf 08 00 00 00       	mov    $0x8,%edi
  40143f:	e8 fc f8 ff ff       	callq  400d40 <exit@plt>

0000000000401444 <string_length>:
  401444:	80 3f 00             	cmpb   $0x0,(%rdi)
  401447:	74 13                	je     40145c <string_length+0x18>
  401449:	b8 00 00 00 00       	mov    $0x0,%eax
  40144e:	48 83 c7 01          	add    $0x1,%rdi
  401452:	83 c0 01             	add    $0x1,%eax
  401455:	80 3f 00             	cmpb   $0x0,(%rdi)
  401458:	75 f4                	jne    40144e <string_length+0xa>
  40145a:	f3 c3                	repz retq 
  40145c:	b8 00 00 00 00       	mov    $0x0,%eax
  401461:	c3                   	retq   

0000000000401462 <strings_not_equal>:
  401462:	41 54                	push   %r12
  401464:	55                   	push   %rbp
  401465:	53                   	push   %rbx
  401466:	48 89 fb             	mov    %rdi,%rbx
  401469:	48 89 f5             	mov    %rsi,%rbp
  40146c:	e8 d3 ff ff ff       	callq  401444 <string_length>
  401471:	41 89 c4             	mov    %eax,%r12d
  401474:	48 89 ef             	mov    %rbp,%rdi
  401477:	e8 c8 ff ff ff       	callq  401444 <string_length>
  40147c:	ba 01 00 00 00       	mov    $0x1,%edx
  401481:	41 39 c4             	cmp    %eax,%r12d
  401484:	75 3c                	jne    4014c2 <strings_not_equal+0x60>
  401486:	0f b6 03             	movzbl (%rbx),%eax
  401489:	84 c0                	test   %al,%al
  40148b:	74 22                	je     4014af <strings_not_equal+0x4d>
  40148d:	3a 45 00             	cmp    0x0(%rbp),%al
  401490:	74 07                	je     401499 <strings_not_equal+0x37>
  401492:	eb 22                	jmp    4014b6 <strings_not_equal+0x54>
  401494:	3a 45 00             	cmp    0x0(%rbp),%al
  401497:	75 24                	jne    4014bd <strings_not_equal+0x5b>
  401499:	48 83 c3 01          	add    $0x1,%rbx
  40149d:	48 83 c5 01          	add    $0x1,%rbp
  4014a1:	0f b6 03             	movzbl (%rbx),%eax
  4014a4:	84 c0                	test   %al,%al
  4014a6:	75 ec                	jne    401494 <strings_not_equal+0x32>
  4014a8:	ba 00 00 00 00       	mov    $0x0,%edx
  4014ad:	eb 13                	jmp    4014c2 <strings_not_equal+0x60>
  4014af:	ba 00 00 00 00       	mov    $0x0,%edx
  4014b4:	eb 0c                	jmp    4014c2 <strings_not_equal+0x60>
  4014b6:	ba 01 00 00 00       	mov    $0x1,%edx
  4014bb:	eb 05                	jmp    4014c2 <strings_not_equal+0x60>
  4014bd:	ba 01 00 00 00       	mov    $0x1,%edx
  4014c2:	89 d0                	mov    %edx,%eax
  4014c4:	5b                   	pop    %rbx
  4014c5:	5d                   	pop    %rbp
  4014c6:	41 5c                	pop    %r12
  4014c8:	c3                   	retq   

00000000004014c9 <strings_check>:
  4014c9:	41 54                	push   %r12
  4014cb:	55                   	push   %rbp
  4014cc:	53                   	push   %rbx
  4014cd:	48 89 fb             	mov    %rdi,%rbx
  4014d0:	48 89 f5             	mov    %rsi,%rbp
  4014d3:	48 89 f7             	mov    %rsi,%rdi
  4014d6:	e8 69 ff ff ff       	callq  401444 <string_length>
  4014db:	41 89 c4             	mov    %eax,%r12d
  4014de:	48 89 df             	mov    %rbx,%rdi
  4014e1:	e8 5e ff ff ff       	callq  401444 <string_length>
  4014e6:	ba 01 00 00 00       	mov    $0x1,%edx
  4014eb:	41 39 c4             	cmp    %eax,%r12d
  4014ee:	7d 5c                	jge    40154c <strings_check+0x83>
  4014f0:	0f b6 45 00          	movzbl 0x0(%rbp),%eax
  4014f4:	84 c0                	test   %al,%al
  4014f6:	74 1a                	je     401512 <strings_check+0x49>
  4014f8:	3a 03                	cmp    (%rbx),%al
  4014fa:	74 06                	je     401502 <strings_check+0x39>
  4014fc:	eb 42                	jmp    401540 <strings_check+0x77>
  4014fe:	3a 03                	cmp    (%rbx),%al
  401500:	75 45                	jne    401547 <strings_check+0x7e>
  401502:	48 83 c5 01          	add    $0x1,%rbp
  401506:	48 83 c3 01          	add    $0x1,%rbx
  40150a:	0f b6 45 00          	movzbl 0x0(%rbp),%eax
  40150e:	84 c0                	test   %al,%al
  401510:	75 ec                	jne    4014fe <strings_check+0x35>
  401512:	ba 01 00 00 00       	mov    $0x1,%edx
  401517:	80 3b 20             	cmpb   $0x20,(%rbx)
  40151a:	75 30                	jne    40154c <strings_check+0x83>
  40151c:	80 7b 01 63          	cmpb   $0x63,0x1(%rbx)
  401520:	75 2a                	jne    40154c <strings_check+0x83>
  401522:	80 7b 02 73          	cmpb   $0x73,0x2(%rbx)
  401526:	75 24                	jne    40154c <strings_check+0x83>
  401528:	80 7b 03 31          	cmpb   $0x31,0x3(%rbx)
  40152c:	75 1e                	jne    40154c <strings_check+0x83>
  40152e:	80 7b 04 35          	cmpb   $0x35,0x4(%rbx)
  401532:	75 18                	jne    40154c <strings_check+0x83>
  401534:	80 7b 05 34          	cmpb   $0x34,0x5(%rbx)
  401538:	0f 95 c2             	setne  %dl
  40153b:	0f b6 d2             	movzbl %dl,%edx
  40153e:	eb 0c                	jmp    40154c <strings_check+0x83>
  401540:	ba 01 00 00 00       	mov    $0x1,%edx
  401545:	eb 05                	jmp    40154c <strings_check+0x83>
  401547:	ba 01 00 00 00       	mov    $0x1,%edx
  40154c:	89 d0                	mov    %edx,%eax
  40154e:	5b                   	pop    %rbx
  40154f:	5d                   	pop    %rbp
  401550:	41 5c                	pop    %r12
  401552:	c3                   	retq   

0000000000401553 <strings_close>:
  401553:	41 54                	push   %r12
  401555:	55                   	push   %rbp
  401556:	53                   	push   %rbx
  401557:	48 89 fb             	mov    %rdi,%rbx
  40155a:	48 89 f5             	mov    %rsi,%rbp
  40155d:	e8 e2 fe ff ff       	callq  401444 <string_length>
  401562:	41 89 c4             	mov    %eax,%r12d
  401565:	48 89 ef             	mov    %rbp,%rdi
  401568:	e8 d7 fe ff ff       	callq  401444 <string_length>
  40156d:	ba 01 00 00 00       	mov    $0x1,%edx
  401572:	41 39 c4             	cmp    %eax,%r12d
  401575:	75 4e                	jne    4015c5 <strings_close+0x72>
  401577:	0f b6 03             	movzbl (%rbx),%eax
  40157a:	84 c0                	test   %al,%al
  40157c:	74 34                	je     4015b2 <strings_close+0x5f>
  40157e:	0f be c0             	movsbl %al,%eax
  401581:	83 c0 01             	add    $0x1,%eax
  401584:	0f be 55 00          	movsbl 0x0(%rbp),%edx
  401588:	39 d0                	cmp    %edx,%eax
  40158a:	74 10                	je     40159c <strings_close+0x49>
  40158c:	eb 2b                	jmp    4015b9 <strings_close+0x66>
  40158e:	0f be c0             	movsbl %al,%eax
  401591:	83 c0 01             	add    $0x1,%eax
  401594:	0f be 55 00          	movsbl 0x0(%rbp),%edx
  401598:	39 d0                	cmp    %edx,%eax
  40159a:	75 24                	jne    4015c0 <strings_close+0x6d>
  40159c:	48 83 c3 01          	add    $0x1,%rbx
  4015a0:	48 83 c5 01          	add    $0x1,%rbp
  4015a4:	0f b6 03             	movzbl (%rbx),%eax
  4015a7:	84 c0                	test   %al,%al
  4015a9:	75 e3                	jne    40158e <strings_close+0x3b>
  4015ab:	ba 00 00 00 00       	mov    $0x0,%edx
  4015b0:	eb 13                	jmp    4015c5 <strings_close+0x72>
  4015b2:	ba 00 00 00 00       	mov    $0x0,%edx
  4015b7:	eb 0c                	jmp    4015c5 <strings_close+0x72>
  4015b9:	ba 01 00 00 00       	mov    $0x1,%edx
  4015be:	eb 05                	jmp    4015c5 <strings_close+0x72>
  4015c0:	ba 01 00 00 00       	mov    $0x1,%edx
  4015c5:	89 d0                	mov    %edx,%eax
  4015c7:	5b                   	pop    %rbx
  4015c8:	5d                   	pop    %rbp
  4015c9:	41 5c                	pop    %r12
  4015cb:	c3                   	retq   

00000000004015cc <initialize_bomb>:
  4015cc:	55                   	push   %rbp
  4015cd:	53                   	push   %rbx
  4015ce:	48 81 ec 98 20 00 00 	sub    $0x2098,%rsp
  4015d5:	64 48 8b 04 25 28 00 	mov    %fs:0x28,%rax
  4015dc:	00 00 
  4015de:	48 89 84 24 88 20 00 	mov    %rax,0x2088(%rsp)
  4015e5:	00 
  4015e6:	31 c0                	xor    %eax,%eax
  4015e8:	be d3 13 40 00       	mov    $0x4013d3,%esi
  4015ed:	bf 02 00 00 00       	mov    $0x2,%edi
  4015f2:	e8 b9 f6 ff ff       	callq  400cb0 <signal@plt>
  4015f7:	c6 44 24 7f 00       	movb   $0x0,0x7f(%rsp)
  4015fc:	be 40 00 00 00       	mov    $0x40,%esi
  401601:	48 8d 7c 24 40       	lea    0x40(%rsp),%rdi
  401606:	e8 25 f7 ff ff       	callq  400d30 <gethostname@plt>
  40160b:	85 c0                	test   %eax,%eax
  40160d:	74 14                	je     401623 <initialize_bomb+0x57>
  40160f:	bf 80 30 40 00       	mov    $0x403080,%edi
  401614:	e8 07 f6 ff ff       	callq  400c20 <puts@plt>
  401619:	bf 08 00 00 00       	mov    $0x8,%edi
  40161e:	e8 1d f7 ff ff       	callq  400d40 <exit@plt>
  401623:	48 8d 54 24 10       	lea    0x10(%rsp),%rdx
  401628:	b9 06 00 00 00       	mov    $0x6,%ecx
  40162d:	b8 00 00 00 00       	mov    $0x0,%eax
  401632:	48 89 d7             	mov    %rdx,%rdi
  401635:	f3 48 ab             	rep stos %rax,%es:(%rdi)
  401638:	c7 44 24 18 01 00 00 	movl   $0x1,0x18(%rsp)
  40163f:	00 
  401640:	c7 44 24 10 02 00 00 	movl   $0x2,0x10(%rsp)
  401647:	00 
  401648:	48 8d 4c 24 08       	lea    0x8(%rsp),%rcx
  40164d:	be 00 00 00 00       	mov    $0x0,%esi
  401652:	48 8d 7c 24 40       	lea    0x40(%rsp),%rdi
  401657:	e8 24 f7 ff ff       	callq  400d80 <getaddrinfo@plt>
  40165c:	85 c0                	test   %eax,%eax
  40165e:	74 2f                	je     40168f <initialize_bomb+0xc3>
  401660:	89 c7                	mov    %eax,%edi
  401662:	e8 e9 f5 ff ff       	callq  400c50 <gai_strerror@plt>
  401667:	48 89 c1             	mov    %rax,%rcx
  40166a:	ba b0 30 40 00       	mov    $0x4030b0,%edx
  40166f:	be 01 00 00 00       	mov    $0x1,%esi
  401674:	48 8b 3d 45 35 20 00 	mov    0x203545(%rip),%rdi        # 604bc0 <stderr@@GLIBC_2.2.5>
  40167b:	b8 00 00 00 00       	mov    $0x0,%eax
  401680:	e8 eb f6 ff ff       	callq  400d70 <__fprintf_chk@plt>
  401685:	bf 08 00 00 00       	mov    $0x8,%edi
  40168a:	e8 b1 f6 ff ff       	callq  400d40 <exit@plt>
  40168f:	48 8b 44 24 08       	mov    0x8(%rsp),%rax
  401694:	48 8b 68 20          	mov    0x20(%rax),%rbp
  401698:	48 85 ed             	test   %rbp,%rbp
  40169b:	74 19                	je     4016b6 <initialize_bomb+0xea>
  40169d:	80 7d 00 00          	cmpb   $0x0,0x0(%rbp)
  4016a1:	74 13                	je     4016b6 <initialize_bomb+0xea>
  4016a3:	48 8b 3d f6 30 20 00 	mov    0x2030f6(%rip),%rdi        # 6047a0 <host_table>
  4016aa:	bb a8 47 60 00       	mov    $0x6047a8,%ebx
  4016af:	48 85 ff             	test   %rdi,%rdi
  4016b2:	75 27                	jne    4016db <initialize_bomb+0x10f>
  4016b4:	eb 79                	jmp    40172f <initialize_bomb+0x163>
  4016b6:	48 8b 0d 03 35 20 00 	mov    0x203503(%rip),%rcx        # 604bc0 <stderr@@GLIBC_2.2.5>
  4016bd:	ba 21 00 00 00       	mov    $0x21,%edx
  4016c2:	be 01 00 00 00       	mov    $0x1,%esi
  4016c7:	bf e0 30 40 00       	mov    $0x4030e0,%edi
  4016cc:	e8 8f f6 ff ff       	callq  400d60 <fwrite@plt>
  4016d1:	bf 08 00 00 00       	mov    $0x8,%edi
  4016d6:	e8 65 f6 ff ff       	callq  400d40 <exit@plt>
  4016db:	48 89 ee             	mov    %rbp,%rsi
  4016de:	e8 0d f5 ff ff       	callq  400bf0 <strcasecmp@plt>
  4016e3:	85 c0                	test   %eax,%eax
  4016e5:	74 35                	je     40171c <initialize_bomb+0x150>
  4016e7:	48 83 c3 08          	add    $0x8,%rbx
  4016eb:	48 8b 7b f8          	mov    -0x8(%rbx),%rdi
  4016ef:	48 85 ff             	test   %rdi,%rdi
  4016f2:	75 e7                	jne    4016db <initialize_bomb+0x10f>
  4016f4:	eb 39                	jmp    40172f <initialize_bomb+0x163>
  4016f6:	48 8d 94 24 80 00 00 	lea    0x80(%rsp),%rdx
  4016fd:	00 
  4016fe:	be 97 2b 40 00       	mov    $0x402b97,%esi
  401703:	bf 01 00 00 00       	mov    $0x1,%edi
  401708:	b8 00 00 00 00       	mov    $0x0,%eax
  40170d:	e8 fe f5 ff ff       	callq  400d10 <__printf_chk@plt>
  401712:	bf 08 00 00 00       	mov    $0x8,%edi
  401717:	e8 24 f6 ff ff       	callq  400d40 <exit@plt>
  40171c:	48 8d bc 24 80 00 00 	lea    0x80(%rsp),%rdi
  401723:	00 
  401724:	e8 47 0d 00 00       	callq  402470 <init_driver>
  401729:	85 c0                	test   %eax,%eax
  40172b:	79 23                	jns    401750 <initialize_bomb+0x184>
  40172d:	eb c7                	jmp    4016f6 <initialize_bomb+0x12a>
  40172f:	48 89 ea             	mov    %rbp,%rdx
  401732:	be 08 31 40 00       	mov    $0x403108,%esi
  401737:	bf 01 00 00 00       	mov    $0x1,%edi
  40173c:	b8 00 00 00 00       	mov    $0x0,%eax
  401741:	e8 ca f5 ff ff       	callq  400d10 <__printf_chk@plt>
  401746:	bf 08 00 00 00       	mov    $0x8,%edi
  40174b:	e8 f0 f5 ff ff       	callq  400d40 <exit@plt>
  401750:	48 8b 84 24 88 20 00 	mov    0x2088(%rsp),%rax
  401757:	00 
  401758:	64 48 33 04 25 28 00 	xor    %fs:0x28,%rax
  40175f:	00 00 
  401761:	74 05                	je     401768 <initialize_bomb+0x19c>
  401763:	e8 d8 f4 ff ff       	callq  400c40 <__stack_chk_fail@plt>
  401768:	48 81 c4 98 20 00 00 	add    $0x2098,%rsp
  40176f:	5b                   	pop    %rbx
  401770:	5d                   	pop    %rbp
  401771:	c3                   	retq   

0000000000401772 <initialize_bomb_solve>:
  401772:	f3 c3                	repz retq 

0000000000401774 <blank_line>:
  401774:	55                   	push   %rbp
  401775:	53                   	push   %rbx
  401776:	48 83 ec 08          	sub    $0x8,%rsp
  40177a:	48 89 fd             	mov    %rdi,%rbp
  40177d:	eb 17                	jmp    401796 <blank_line+0x22>
  40177f:	e8 1c f6 ff ff       	callq  400da0 <__ctype_b_loc@plt>
  401784:	48 83 c5 01          	add    $0x1,%rbp
  401788:	48 0f be db          	movsbq %bl,%rbx
  40178c:	48 8b 00             	mov    (%rax),%rax
  40178f:	f6 44 58 01 20       	testb  $0x20,0x1(%rax,%rbx,2)
  401794:	74 0f                	je     4017a5 <blank_line+0x31>
  401796:	0f b6 5d 00          	movzbl 0x0(%rbp),%ebx
  40179a:	84 db                	test   %bl,%bl
  40179c:	75 e1                	jne    40177f <blank_line+0xb>
  40179e:	b8 01 00 00 00       	mov    $0x1,%eax
  4017a3:	eb 05                	jmp    4017aa <blank_line+0x36>
  4017a5:	b8 00 00 00 00       	mov    $0x0,%eax
  4017aa:	48 83 c4 08          	add    $0x8,%rsp
  4017ae:	5b                   	pop    %rbx
  4017af:	5d                   	pop    %rbp
  4017b0:	c3                   	retq   

00000000004017b1 <skip>:
  4017b1:	53                   	push   %rbx
  4017b2:	48 63 05 13 34 20 00 	movslq 0x203413(%rip),%rax        # 604bcc <num_input_strings>
  4017b9:	48 8d 3c 80          	lea    (%rax,%rax,4),%rdi
  4017bd:	48 c1 e7 04          	shl    $0x4,%rdi
  4017c1:	48 81 c7 e0 4b 60 00 	add    $0x604be0,%rdi
  4017c8:	48 8b 15 01 34 20 00 	mov    0x203401(%rip),%rdx        # 604bd0 <infile>
  4017cf:	be 50 00 00 00       	mov    $0x50,%esi
  4017d4:	e8 c7 f4 ff ff       	callq  400ca0 <fgets@plt>
  4017d9:	48 89 c3             	mov    %rax,%rbx
  4017dc:	48 85 c0             	test   %rax,%rax
  4017df:	74 0c                	je     4017ed <skip+0x3c>
  4017e1:	48 89 c7             	mov    %rax,%rdi
  4017e4:	e8 8b ff ff ff       	callq  401774 <blank_line>
  4017e9:	85 c0                	test   %eax,%eax
  4017eb:	75 c5                	jne    4017b2 <skip+0x1>
  4017ed:	48 89 d8             	mov    %rbx,%rax
  4017f0:	5b                   	pop    %rbx
  4017f1:	c3                   	retq   

00000000004017f2 <send_msg>:
  4017f2:	48 81 ec 18 40 00 00 	sub    $0x4018,%rsp
  4017f9:	41 89 f8             	mov    %edi,%r8d
  4017fc:	64 48 8b 04 25 28 00 	mov    %fs:0x28,%rax
  401803:	00 00 
  401805:	48 89 84 24 08 40 00 	mov    %rax,0x4008(%rsp)
  40180c:	00 
  40180d:	31 c0                	xor    %eax,%eax
  40180f:	8b 35 b7 33 20 00    	mov    0x2033b7(%rip),%esi        # 604bcc <num_input_strings>
  401815:	8d 46 ff             	lea    -0x1(%rsi),%eax
  401818:	48 98                	cltq   
  40181a:	48 8d 14 80          	lea    (%rax,%rax,4),%rdx
  40181e:	48 c1 e2 04          	shl    $0x4,%rdx
  401822:	48 81 c2 e0 4b 60 00 	add    $0x604be0,%rdx
  401829:	b8 00 00 00 00       	mov    $0x0,%eax
  40182e:	48 c7 c1 ff ff ff ff 	mov    $0xffffffffffffffff,%rcx
  401835:	48 89 d7             	mov    %rdx,%rdi
  401838:	f2 ae                	repnz scas %es:(%rdi),%al
  40183a:	48 f7 d1             	not    %rcx
  40183d:	48 83 c1 63          	add    $0x63,%rcx
  401841:	48 81 f9 00 20 00 00 	cmp    $0x2000,%rcx
  401848:	76 19                	jbe    401863 <send_msg+0x71>
  40184a:	be 40 31 40 00       	mov    $0x403140,%esi
  40184f:	bf 01 00 00 00       	mov    $0x1,%edi
  401854:	e8 b7 f4 ff ff       	callq  400d10 <__printf_chk@plt>
  401859:	bf 08 00 00 00       	mov    $0x8,%edi
  40185e:	e8 dd f4 ff ff       	callq  400d40 <exit@plt>
  401863:	45 85 c0             	test   %r8d,%r8d
  401866:	41 b9 bd 2b 40 00    	mov    $0x402bbd,%r9d
  40186c:	b8 b5 2b 40 00       	mov    $0x402bb5,%eax
  401871:	4c 0f 45 c8          	cmovne %rax,%r9
  401875:	52                   	push   %rdx
  401876:	56                   	push   %rsi
  401877:	44 8b 05 02 2f 20 00 	mov    0x202f02(%rip),%r8d        # 604780 <bomb_id>
  40187e:	b9 c6 2b 40 00       	mov    $0x402bc6,%ecx
  401883:	ba 00 20 00 00       	mov    $0x2000,%edx
  401888:	be 01 00 00 00       	mov    $0x1,%esi
  40188d:	48 8d 7c 24 10       	lea    0x10(%rsp),%rdi
  401892:	b8 00 00 00 00       	mov    $0x0,%eax
  401897:	e8 14 f5 ff ff       	callq  400db0 <__sprintf_chk@plt>
  40189c:	48 8d 8c 24 10 20 00 	lea    0x2010(%rsp),%rcx
  4018a3:	00 
  4018a4:	ba 00 00 00 00       	mov    $0x0,%edx
  4018a9:	48 8d 74 24 10       	lea    0x10(%rsp),%rsi
  4018ae:	bf 80 43 60 00       	mov    $0x604380,%edi
  4018b3:	e8 5b 0d 00 00       	callq  402613 <driver_post>
  4018b8:	48 83 c4 10          	add    $0x10,%rsp
  4018bc:	85 c0                	test   %eax,%eax
  4018be:	79 17                	jns    4018d7 <send_msg+0xe5>
  4018c0:	48 8d bc 24 00 20 00 	lea    0x2000(%rsp),%rdi
  4018c7:	00 
  4018c8:	e8 53 f3 ff ff       	callq  400c20 <puts@plt>
  4018cd:	bf 00 00 00 00       	mov    $0x0,%edi
  4018d2:	e8 69 f4 ff ff       	callq  400d40 <exit@plt>
  4018d7:	48 8b 84 24 08 40 00 	mov    0x4008(%rsp),%rax
  4018de:	00 
  4018df:	64 48 33 04 25 28 00 	xor    %fs:0x28,%rax
  4018e6:	00 00 
  4018e8:	74 05                	je     4018ef <send_msg+0xfd>
  4018ea:	e8 51 f3 ff ff       	callq  400c40 <__stack_chk_fail@plt>
  4018ef:	48 81 c4 18 40 00 00 	add    $0x4018,%rsp
  4018f6:	c3                   	retq   

00000000004018f7 <explode_bomb>:
  4018f7:	48 83 ec 08          	sub    $0x8,%rsp
  4018fb:	bf 68 31 40 00       	mov    $0x403168,%edi
  401900:	e8 1b f3 ff ff       	callq  400c20 <puts@plt>
  401905:	bf 00 00 00 00       	mov    $0x0,%edi
  40190a:	e8 e3 fe ff ff       	callq  4017f2 <send_msg>
  40190f:	bf 98 31 40 00       	mov    $0x403198,%edi
  401914:	e8 07 f3 ff ff       	callq  400c20 <puts@plt>
  401919:	bf 08 00 00 00       	mov    $0x8,%edi
  40191e:	e8 1d f4 ff ff       	callq  400d40 <exit@plt>

0000000000401923 <read_six_numbers>:
  401923:	48 83 ec 08          	sub    $0x8,%rsp
  401927:	48 89 f2             	mov    %rsi,%rdx
  40192a:	48 8d 4e 04          	lea    0x4(%rsi),%rcx
  40192e:	48 8d 46 14          	lea    0x14(%rsi),%rax
  401932:	50                   	push   %rax
  401933:	48 8d 46 10          	lea    0x10(%rsi),%rax
  401937:	50                   	push   %rax
  401938:	4c 8d 4e 0c          	lea    0xc(%rsi),%r9
  40193c:	4c 8d 46 08          	lea    0x8(%rsi),%r8
  401940:	be d2 2b 40 00       	mov    $0x402bd2,%esi
  401945:	b8 00 00 00 00       	mov    $0x0,%eax
  40194a:	e8 b1 f3 ff ff       	callq  400d00 <__isoc99_sscanf@plt>
  40194f:	48 83 c4 10          	add    $0x10,%rsp
  401953:	83 f8 05             	cmp    $0x5,%eax
  401956:	7f 05                	jg     40195d <read_six_numbers+0x3a>
  401958:	e8 9a ff ff ff       	callq  4018f7 <explode_bomb>
  40195d:	48 83 c4 08          	add    $0x8,%rsp
  401961:	c3                   	retq   

0000000000401962 <read_line>:
  401962:	48 83 ec 08          	sub    $0x8,%rsp
  401966:	b8 00 00 00 00       	mov    $0x0,%eax
  40196b:	e8 41 fe ff ff       	callq  4017b1 <skip>
  401970:	48 85 c0             	test   %rax,%rax
  401973:	75 6e                	jne    4019e3 <read_line+0x81>
  401975:	48 8b 05 34 32 20 00 	mov    0x203234(%rip),%rax        # 604bb0 <stdin@@GLIBC_2.2.5>
  40197c:	48 39 05 4d 32 20 00 	cmp    %rax,0x20324d(%rip)        # 604bd0 <infile>
  401983:	75 14                	jne    401999 <read_line+0x37>
  401985:	bf e4 2b 40 00       	mov    $0x402be4,%edi
  40198a:	e8 91 f2 ff ff       	callq  400c20 <puts@plt>
  40198f:	bf 08 00 00 00       	mov    $0x8,%edi
  401994:	e8 a7 f3 ff ff       	callq  400d40 <exit@plt>
  401999:	bf 02 2c 40 00       	mov    $0x402c02,%edi
  40199e:	e8 3d f2 ff ff       	callq  400be0 <getenv@plt>
  4019a3:	48 85 c0             	test   %rax,%rax
  4019a6:	74 0a                	je     4019b2 <read_line+0x50>
  4019a8:	bf 00 00 00 00       	mov    $0x0,%edi
  4019ad:	e8 8e f3 ff ff       	callq  400d40 <exit@plt>
  4019b2:	48 8b 05 f7 31 20 00 	mov    0x2031f7(%rip),%rax        # 604bb0 <stdin@@GLIBC_2.2.5>
  4019b9:	48 89 05 10 32 20 00 	mov    %rax,0x203210(%rip)        # 604bd0 <infile>
  4019c0:	b8 00 00 00 00       	mov    $0x0,%eax
  4019c5:	e8 e7 fd ff ff       	callq  4017b1 <skip>
  4019ca:	48 85 c0             	test   %rax,%rax
  4019cd:	75 14                	jne    4019e3 <read_line+0x81>
  4019cf:	bf e4 2b 40 00       	mov    $0x402be4,%edi
  4019d4:	e8 47 f2 ff ff       	callq  400c20 <puts@plt>
  4019d9:	bf 00 00 00 00       	mov    $0x0,%edi
  4019de:	e8 5d f3 ff ff       	callq  400d40 <exit@plt>
  4019e3:	8b 35 e3 31 20 00    	mov    0x2031e3(%rip),%esi        # 604bcc <num_input_strings>
  4019e9:	48 63 c6             	movslq %esi,%rax
  4019ec:	48 8d 14 80          	lea    (%rax,%rax,4),%rdx
  4019f0:	48 c1 e2 04          	shl    $0x4,%rdx
  4019f4:	48 81 c2 e0 4b 60 00 	add    $0x604be0,%rdx
  4019fb:	b8 00 00 00 00       	mov    $0x0,%eax
  401a00:	48 c7 c1 ff ff ff ff 	mov    $0xffffffffffffffff,%rcx
  401a07:	48 89 d7             	mov    %rdx,%rdi
  401a0a:	f2 ae                	repnz scas %es:(%rdi),%al
  401a0c:	48 f7 d1             	not    %rcx
  401a0f:	48 83 e9 01          	sub    $0x1,%rcx
  401a13:	83 f9 4e             	cmp    $0x4e,%ecx
  401a16:	7e 46                	jle    401a5e <read_line+0xfc>
  401a18:	bf 0d 2c 40 00       	mov    $0x402c0d,%edi
  401a1d:	e8 fe f1 ff ff       	callq  400c20 <puts@plt>
  401a22:	8b 05 a4 31 20 00    	mov    0x2031a4(%rip),%eax        # 604bcc <num_input_strings>
  401a28:	8d 50 01             	lea    0x1(%rax),%edx
  401a2b:	89 15 9b 31 20 00    	mov    %edx,0x20319b(%rip)        # 604bcc <num_input_strings>
  401a31:	48 98                	cltq   
  401a33:	48 6b c0 50          	imul   $0x50,%rax,%rax
  401a37:	48 bf 2a 2a 2a 74 72 	movabs $0x636e7572742a2a2a,%rdi
  401a3e:	75 6e 63 
  401a41:	48 89 b8 e0 4b 60 00 	mov    %rdi,0x604be0(%rax)
  401a48:	48 bf 61 74 65 64 2a 	movabs $0x2a2a2a64657461,%rdi
  401a4f:	2a 2a 00 
  401a52:	48 89 b8 e8 4b 60 00 	mov    %rdi,0x604be8(%rax)
  401a59:	e8 99 fe ff ff       	callq  4018f7 <explode_bomb>
  401a5e:	83 e9 01             	sub    $0x1,%ecx
  401a61:	48 63 c9             	movslq %ecx,%rcx
  401a64:	48 63 c6             	movslq %esi,%rax
  401a67:	48 8d 04 80          	lea    (%rax,%rax,4),%rax
  401a6b:	48 c1 e0 04          	shl    $0x4,%rax
  401a6f:	c6 84 01 e0 4b 60 00 	movb   $0x0,0x604be0(%rcx,%rax,1)
  401a76:	00 
  401a77:	8d 46 01             	lea    0x1(%rsi),%eax
  401a7a:	89 05 4c 31 20 00    	mov    %eax,0x20314c(%rip)        # 604bcc <num_input_strings>
  401a80:	48 89 d0             	mov    %rdx,%rax
  401a83:	48 83 c4 08          	add    $0x8,%rsp
  401a87:	c3                   	retq   

0000000000401a88 <phase_defused>:
  401a88:	48 83 ec 78          	sub    $0x78,%rsp
  401a8c:	64 48 8b 04 25 28 00 	mov    %fs:0x28,%rax
  401a93:	00 00 
  401a95:	48 89 44 24 68       	mov    %rax,0x68(%rsp)
  401a9a:	31 c0                	xor    %eax,%eax
  401a9c:	bf 01 00 00 00       	mov    $0x1,%edi
  401aa1:	e8 4c fd ff ff       	callq  4017f2 <send_msg>
  401aa6:	83 3d 1f 31 20 00 06 	cmpl   $0x6,0x20311f(%rip)        # 604bcc <num_input_strings>
  401aad:	75 63                	jne    401b12 <phase_defused+0x8a>
  401aaf:	4c 8d 44 24 10       	lea    0x10(%rsp),%r8
  401ab4:	48 8d 4c 24 0c       	lea    0xc(%rsp),%rcx
  401ab9:	48 8d 54 24 08       	lea    0x8(%rsp),%rdx
  401abe:	be 28 2c 40 00       	mov    $0x402c28,%esi
  401ac3:	bf d0 4c 60 00       	mov    $0x604cd0,%edi
  401ac8:	b8 00 00 00 00       	mov    $0x0,%eax
  401acd:	e8 2e f2 ff ff       	callq  400d00 <__isoc99_sscanf@plt>
  401ad2:	83 f8 03             	cmp    $0x3,%eax
  401ad5:	75 27                	jne    401afe <phase_defused+0x76>
  401ad7:	be 31 2c 40 00       	mov    $0x402c31,%esi
  401adc:	48 8d 7c 24 10       	lea    0x10(%rsp),%rdi
  401ae1:	e8 6d fa ff ff       	callq  401553 <strings_close>
  401ae6:	85 c0                	test   %eax,%eax
  401ae8:	75 14                	jne    401afe <phase_defused+0x76>
  401aea:	bf e0 31 40 00       	mov    $0x4031e0,%edi
  401aef:	e8 2c f1 ff ff       	callq  400c20 <puts@plt>
  401af4:	b8 00 00 00 00       	mov    $0x0,%eax
  401af9:	e8 84 f8 ff ff       	callq  401382 <secret_phase>
  401afe:	bf 08 32 40 00       	mov    $0x403208,%edi
  401b03:	e8 18 f1 ff ff       	callq  400c20 <puts@plt>
  401b08:	bf 38 32 40 00       	mov    $0x403238,%edi
  401b0d:	e8 0e f1 ff ff       	callq  400c20 <puts@plt>
  401b12:	48 8b 44 24 68       	mov    0x68(%rsp),%rax
  401b17:	64 48 33 04 25 28 00 	xor    %fs:0x28,%rax
  401b1e:	00 00 
  401b20:	74 05                	je     401b27 <phase_defused+0x9f>
  401b22:	e8 19 f1 ff ff       	callq  400c40 <__stack_chk_fail@plt>
  401b27:	48 83 c4 78          	add    $0x78,%rsp
  401b2b:	c3                   	retq   

0000000000401b2c <sigalrm_handler>:
  401b2c:	48 83 ec 08          	sub    $0x8,%rsp
  401b30:	b9 00 00 00 00       	mov    $0x0,%ecx
  401b35:	ba 70 32 40 00       	mov    $0x403270,%edx
  401b3a:	be 01 00 00 00       	mov    $0x1,%esi
  401b3f:	48 8b 3d 7a 30 20 00 	mov    0x20307a(%rip),%rdi        # 604bc0 <stderr@@GLIBC_2.2.5>
  401b46:	b8 00 00 00 00       	mov    $0x0,%eax
  401b4b:	e8 20 f2 ff ff       	callq  400d70 <__fprintf_chk@plt>
  401b50:	bf 01 00 00 00       	mov    $0x1,%edi
  401b55:	e8 e6 f1 ff ff       	callq  400d40 <exit@plt>

0000000000401b5a <rio_readlineb>:
  401b5a:	41 56                	push   %r14
  401b5c:	41 55                	push   %r13
  401b5e:	41 54                	push   %r12
  401b60:	55                   	push   %rbp
  401b61:	53                   	push   %rbx
  401b62:	48 83 ec 10          	sub    $0x10,%rsp
  401b66:	48 89 fb             	mov    %rdi,%rbx
  401b69:	49 89 f5             	mov    %rsi,%r13
  401b6c:	49 89 d6             	mov    %rdx,%r14
  401b6f:	64 48 8b 04 25 28 00 	mov    %fs:0x28,%rax
  401b76:	00 00 
  401b78:	48 89 44 24 08       	mov    %rax,0x8(%rsp)
  401b7d:	31 c0                	xor    %eax,%eax
  401b7f:	41 bc 01 00 00 00    	mov    $0x1,%r12d
  401b85:	48 8d 6f 10          	lea    0x10(%rdi),%rbp
  401b89:	48 83 fa 01          	cmp    $0x1,%rdx
  401b8d:	77 2c                	ja     401bbb <rio_readlineb+0x61>
  401b8f:	eb 6d                	jmp    401bfe <rio_readlineb+0xa4>
  401b91:	ba 00 20 00 00       	mov    $0x2000,%edx
  401b96:	48 89 ee             	mov    %rbp,%rsi
  401b99:	8b 3b                	mov    (%rbx),%edi
  401b9b:	e8 e0 f0 ff ff       	callq  400c80 <read@plt>
  401ba0:	89 43 04             	mov    %eax,0x4(%rbx)
  401ba3:	85 c0                	test   %eax,%eax
  401ba5:	79 0c                	jns    401bb3 <rio_readlineb+0x59>
  401ba7:	e8 54 f0 ff ff       	callq  400c00 <__errno_location@plt>
  401bac:	83 38 04             	cmpl   $0x4,(%rax)
  401baf:	74 0a                	je     401bbb <rio_readlineb+0x61>
  401bb1:	eb 6c                	jmp    401c1f <rio_readlineb+0xc5>
  401bb3:	85 c0                	test   %eax,%eax
  401bb5:	74 71                	je     401c28 <rio_readlineb+0xce>
  401bb7:	48 89 6b 08          	mov    %rbp,0x8(%rbx)
  401bbb:	8b 43 04             	mov    0x4(%rbx),%eax
  401bbe:	85 c0                	test   %eax,%eax
  401bc0:	7e cf                	jle    401b91 <rio_readlineb+0x37>
  401bc2:	48 8b 53 08          	mov    0x8(%rbx),%rdx
  401bc6:	0f b6 0a             	movzbl (%rdx),%ecx
  401bc9:	88 4c 24 07          	mov    %cl,0x7(%rsp)
  401bcd:	48 83 c2 01          	add    $0x1,%rdx
  401bd1:	48 89 53 08          	mov    %rdx,0x8(%rbx)
  401bd5:	83 e8 01             	sub    $0x1,%eax
  401bd8:	89 43 04             	mov    %eax,0x4(%rbx)
  401bdb:	49 83 c5 01          	add    $0x1,%r13
  401bdf:	41 88 4d ff          	mov    %cl,-0x1(%r13)
  401be3:	80 f9 0a             	cmp    $0xa,%cl
  401be6:	75 0a                	jne    401bf2 <rio_readlineb+0x98>
  401be8:	eb 14                	jmp    401bfe <rio_readlineb+0xa4>
  401bea:	41 83 fc 01          	cmp    $0x1,%r12d
  401bee:	75 0e                	jne    401bfe <rio_readlineb+0xa4>
  401bf0:	eb 16                	jmp    401c08 <rio_readlineb+0xae>
  401bf2:	41 83 c4 01          	add    $0x1,%r12d
  401bf6:	49 63 c4             	movslq %r12d,%rax
  401bf9:	4c 39 f0             	cmp    %r14,%rax
  401bfc:	72 bd                	jb     401bbb <rio_readlineb+0x61>
  401bfe:	41 c6 45 00 00       	movb   $0x0,0x0(%r13)
  401c03:	49 63 c4             	movslq %r12d,%rax
  401c06:	eb 05                	jmp    401c0d <rio_readlineb+0xb3>
  401c08:	b8 00 00 00 00       	mov    $0x0,%eax
  401c0d:	48 8b 4c 24 08       	mov    0x8(%rsp),%rcx
  401c12:	64 48 33 0c 25 28 00 	xor    %fs:0x28,%rcx
  401c19:	00 00 
  401c1b:	74 22                	je     401c3f <rio_readlineb+0xe5>
  401c1d:	eb 1b                	jmp    401c3a <rio_readlineb+0xe0>
  401c1f:	48 c7 c0 ff ff ff ff 	mov    $0xffffffffffffffff,%rax
  401c26:	eb 05                	jmp    401c2d <rio_readlineb+0xd3>
  401c28:	b8 00 00 00 00       	mov    $0x0,%eax
  401c2d:	85 c0                	test   %eax,%eax
  401c2f:	74 b9                	je     401bea <rio_readlineb+0x90>
  401c31:	48 c7 c0 ff ff ff ff 	mov    $0xffffffffffffffff,%rax
  401c38:	eb d3                	jmp    401c0d <rio_readlineb+0xb3>
  401c3a:	e8 01 f0 ff ff       	callq  400c40 <__stack_chk_fail@plt>
  401c3f:	48 83 c4 10          	add    $0x10,%rsp
  401c43:	5b                   	pop    %rbx
  401c44:	5d                   	pop    %rbp
  401c45:	41 5c                	pop    %r12
  401c47:	41 5d                	pop    %r13
  401c49:	41 5e                	pop    %r14
  401c4b:	c3                   	retq   

0000000000401c4c <submitr>:
  401c4c:	41 57                	push   %r15
  401c4e:	41 56                	push   %r14
  401c50:	41 55                	push   %r13
  401c52:	41 54                	push   %r12
  401c54:	55                   	push   %rbp
  401c55:	53                   	push   %rbx
  401c56:	48 81 ec 68 a0 00 00 	sub    $0xa068,%rsp
  401c5d:	48 89 fd             	mov    %rdi,%rbp
  401c60:	41 89 f5             	mov    %esi,%r13d
  401c63:	48 89 54 24 08       	mov    %rdx,0x8(%rsp)
  401c68:	48 89 4c 24 10       	mov    %rcx,0x10(%rsp)
  401c6d:	4c 89 44 24 18       	mov    %r8,0x18(%rsp)
  401c72:	4c 89 cb             	mov    %r9,%rbx
  401c75:	4c 8b bc 24 a0 a0 00 	mov    0xa0a0(%rsp),%r15
  401c7c:	00 
  401c7d:	64 48 8b 04 25 28 00 	mov    %fs:0x28,%rax
  401c84:	00 00 
  401c86:	48 89 84 24 58 a0 00 	mov    %rax,0xa058(%rsp)
  401c8d:	00 
  401c8e:	31 c0                	xor    %eax,%eax
  401c90:	c7 44 24 2c 00 00 00 	movl   $0x0,0x2c(%rsp)
  401c97:	00 
  401c98:	ba 00 00 00 00       	mov    $0x0,%edx
  401c9d:	be 01 00 00 00       	mov    $0x1,%esi
  401ca2:	bf 02 00 00 00       	mov    $0x2,%edi
  401ca7:	e8 14 f1 ff ff       	callq  400dc0 <socket@plt>
  401cac:	85 c0                	test   %eax,%eax
  401cae:	79 50                	jns    401d00 <submitr+0xb4>
  401cb0:	48 b8 45 72 72 6f 72 	movabs $0x43203a726f727245,%rax
  401cb7:	3a 20 43 
  401cba:	49 89 07             	mov    %rax,(%r15)
  401cbd:	48 b8 6c 69 65 6e 74 	movabs $0x6e7520746e65696c,%rax
  401cc4:	20 75 6e 
  401cc7:	49 89 47 08          	mov    %rax,0x8(%r15)
  401ccb:	48 b8 61 62 6c 65 20 	movabs $0x206f7420656c6261,%rax
  401cd2:	74 6f 20 
  401cd5:	49 89 47 10          	mov    %rax,0x10(%r15)
  401cd9:	48 b8 63 72 65 61 74 	movabs $0x7320657461657263,%rax
  401ce0:	65 20 73 
  401ce3:	49 89 47 18          	mov    %rax,0x18(%r15)
  401ce7:	41 c7 47 20 6f 63 6b 	movl   $0x656b636f,0x20(%r15)
  401cee:	65 
  401cef:	66 41 c7 47 24 74 00 	movw   $0x74,0x24(%r15)
  401cf6:	b8 ff ff ff ff       	mov    $0xffffffff,%eax
  401cfb:	e9 15 06 00 00       	jmpq   402315 <submitr+0x6c9>
  401d00:	41 89 c4             	mov    %eax,%r12d
  401d03:	48 89 ef             	mov    %rbp,%rdi
  401d06:	e8 b5 ef ff ff       	callq  400cc0 <gethostbyname@plt>
  401d0b:	48 85 c0             	test   %rax,%rax
  401d0e:	75 6b                	jne    401d7b <submitr+0x12f>
  401d10:	48 b8 45 72 72 6f 72 	movabs $0x44203a726f727245,%rax
  401d17:	3a 20 44 
  401d1a:	49 89 07             	mov    %rax,(%r15)
  401d1d:	48 b8 4e 53 20 69 73 	movabs $0x6e7520736920534e,%rax
  401d24:	20 75 6e 
  401d27:	49 89 47 08          	mov    %rax,0x8(%r15)
  401d2b:	48 b8 61 62 6c 65 20 	movabs $0x206f7420656c6261,%rax
  401d32:	74 6f 20 
  401d35:	49 89 47 10          	mov    %rax,0x10(%r15)
  401d39:	48 b8 72 65 73 6f 6c 	movabs $0x2065766c6f736572,%rax
  401d40:	76 65 20 
  401d43:	49 89 47 18          	mov    %rax,0x18(%r15)
  401d47:	48 b8 73 65 72 76 65 	movabs $0x6120726576726573,%rax
  401d4e:	72 20 61 
  401d51:	49 89 47 20          	mov    %rax,0x20(%r15)
  401d55:	41 c7 47 28 64 64 72 	movl   $0x65726464,0x28(%r15)
  401d5c:	65 
  401d5d:	66 41 c7 47 2c 73 73 	movw   $0x7373,0x2c(%r15)
  401d64:	41 c6 47 2e 00       	movb   $0x0,0x2e(%r15)
  401d69:	44 89 e7             	mov    %r12d,%edi
  401d6c:	e8 ff ee ff ff       	callq  400c70 <close@plt>
  401d71:	b8 ff ff ff ff       	mov    $0xffffffff,%eax
  401d76:	e9 9a 05 00 00       	jmpq   402315 <submitr+0x6c9>
  401d7b:	48 c7 44 24 30 00 00 	movq   $0x0,0x30(%rsp)
  401d82:	00 00 
  401d84:	48 c7 44 24 38 00 00 	movq   $0x0,0x38(%rsp)
  401d8b:	00 00 
  401d8d:	66 c7 44 24 30 02 00 	movw   $0x2,0x30(%rsp)
  401d94:	48 63 50 14          	movslq 0x14(%rax),%rdx
  401d98:	48 8b 40 18          	mov    0x18(%rax),%rax
  401d9c:	48 8d 7c 24 34       	lea    0x34(%rsp),%rdi
  401da1:	b9 0c 00 00 00       	mov    $0xc,%ecx
  401da6:	48 8b 30             	mov    (%rax),%rsi
  401da9:	e8 22 ef ff ff       	callq  400cd0 <__memmove_chk@plt>
  401dae:	66 41 c1 cd 08       	ror    $0x8,%r13w
  401db3:	66 44 89 6c 24 32    	mov    %r13w,0x32(%rsp)
  401db9:	ba 10 00 00 00       	mov    $0x10,%edx
  401dbe:	48 8d 74 24 30       	lea    0x30(%rsp),%rsi
  401dc3:	44 89 e7             	mov    %r12d,%edi
  401dc6:	e8 85 ef ff ff       	callq  400d50 <connect@plt>
  401dcb:	85 c0                	test   %eax,%eax
  401dcd:	79 5d                	jns    401e2c <submitr+0x1e0>
  401dcf:	48 b8 45 72 72 6f 72 	movabs $0x55203a726f727245,%rax
  401dd6:	3a 20 55 
  401dd9:	49 89 07             	mov    %rax,(%r15)
  401ddc:	48 b8 6e 61 62 6c 65 	movabs $0x6f7420656c62616e,%rax
  401de3:	20 74 6f 
  401de6:	49 89 47 08          	mov    %rax,0x8(%r15)
  401dea:	48 b8 20 63 6f 6e 6e 	movabs $0x7463656e6e6f6320,%rax
  401df1:	65 63 74 
  401df4:	49 89 47 10          	mov    %rax,0x10(%r15)
  401df8:	48 b8 20 74 6f 20 74 	movabs $0x20656874206f7420,%rax
  401dff:	68 65 20 
  401e02:	49 89 47 18          	mov    %rax,0x18(%r15)
  401e06:	41 c7 47 20 73 65 72 	movl   $0x76726573,0x20(%r15)
  401e0d:	76 
  401e0e:	66 41 c7 47 24 65 72 	movw   $0x7265,0x24(%r15)
  401e15:	41 c6 47 26 00       	movb   $0x0,0x26(%r15)
  401e1a:	44 89 e7             	mov    %r12d,%edi
  401e1d:	e8 4e ee ff ff       	callq  400c70 <close@plt>
  401e22:	b8 ff ff ff ff       	mov    $0xffffffff,%eax
  401e27:	e9 e9 04 00 00       	jmpq   402315 <submitr+0x6c9>
  401e2c:	49 c7 c1 ff ff ff ff 	mov    $0xffffffffffffffff,%r9
  401e33:	b8 00 00 00 00       	mov    $0x0,%eax
  401e38:	4c 89 c9             	mov    %r9,%rcx
  401e3b:	48 89 df             	mov    %rbx,%rdi
  401e3e:	f2 ae                	repnz scas %es:(%rdi),%al
  401e40:	48 f7 d1             	not    %rcx
  401e43:	48 89 ce             	mov    %rcx,%rsi
  401e46:	4c 89 c9             	mov    %r9,%rcx
  401e49:	48 8b 7c 24 08       	mov    0x8(%rsp),%rdi
  401e4e:	f2 ae                	repnz scas %es:(%rdi),%al
  401e50:	49 89 c8             	mov    %rcx,%r8
  401e53:	4c 89 c9             	mov    %r9,%rcx
  401e56:	48 8b 7c 24 10       	mov    0x10(%rsp),%rdi
  401e5b:	f2 ae                	repnz scas %es:(%rdi),%al
  401e5d:	48 f7 d1             	not    %rcx
  401e60:	48 89 ca             	mov    %rcx,%rdx
  401e63:	4c 89 c9             	mov    %r9,%rcx
  401e66:	48 8b 7c 24 18       	mov    0x18(%rsp),%rdi
  401e6b:	f2 ae                	repnz scas %es:(%rdi),%al
  401e6d:	4c 29 c2             	sub    %r8,%rdx
  401e70:	48 29 ca             	sub    %rcx,%rdx
  401e73:	48 8d 44 76 fd       	lea    -0x3(%rsi,%rsi,2),%rax
  401e78:	48 8d 44 02 7b       	lea    0x7b(%rdx,%rax,1),%rax
  401e7d:	48 3d 00 20 00 00    	cmp    $0x2000,%rax
  401e83:	76 73                	jbe    401ef8 <submitr+0x2ac>
  401e85:	48 b8 45 72 72 6f 72 	movabs $0x52203a726f727245,%rax
  401e8c:	3a 20 52 
  401e8f:	49 89 07             	mov    %rax,(%r15)
  401e92:	48 b8 65 73 75 6c 74 	movabs $0x747320746c757365,%rax
  401e99:	20 73 74 
  401e9c:	49 89 47 08          	mov    %rax,0x8(%r15)
  401ea0:	48 b8 72 69 6e 67 20 	movabs $0x6f6f7420676e6972,%rax
  401ea7:	74 6f 6f 
  401eaa:	49 89 47 10          	mov    %rax,0x10(%r15)
  401eae:	48 b8 20 6c 61 72 67 	movabs $0x202e656772616c20,%rax
  401eb5:	65 2e 20 
  401eb8:	49 89 47 18          	mov    %rax,0x18(%r15)
  401ebc:	48 b8 49 6e 63 72 65 	movabs $0x6573616572636e49,%rax
  401ec3:	61 73 65 
  401ec6:	49 89 47 20          	mov    %rax,0x20(%r15)
  401eca:	48 b8 20 53 55 42 4d 	movabs $0x5254494d42555320,%rax
  401ed1:	49 54 52 
  401ed4:	49 89 47 28          	mov    %rax,0x28(%r15)
  401ed8:	48 b8 5f 4d 41 58 42 	movabs $0x46554258414d5f,%rax
  401edf:	55 46 00 
  401ee2:	49 89 47 30          	mov    %rax,0x30(%r15)
  401ee6:	44 89 e7             	mov    %r12d,%edi
  401ee9:	e8 82 ed ff ff       	callq  400c70 <close@plt>
  401eee:	b8 ff ff ff ff       	mov    $0xffffffff,%eax
  401ef3:	e9 1d 04 00 00       	jmpq   402315 <submitr+0x6c9>
  401ef8:	48 8d 94 24 50 40 00 	lea    0x4050(%rsp),%rdx
  401eff:	00 
  401f00:	b9 00 04 00 00       	mov    $0x400,%ecx
  401f05:	b8 00 00 00 00       	mov    $0x0,%eax
  401f0a:	48 89 d7             	mov    %rdx,%rdi
  401f0d:	f3 48 ab             	rep stos %rax,%es:(%rdi)
  401f10:	48 c7 c1 ff ff ff ff 	mov    $0xffffffffffffffff,%rcx
  401f17:	48 89 df             	mov    %rbx,%rdi
  401f1a:	f2 ae                	repnz scas %es:(%rdi),%al
  401f1c:	48 89 c8             	mov    %rcx,%rax
  401f1f:	48 f7 d0             	not    %rax
  401f22:	48 83 e8 01          	sub    $0x1,%rax
  401f26:	85 c0                	test   %eax,%eax
  401f28:	0f 84 90 04 00 00    	je     4023be <submitr+0x772>
  401f2e:	8d 40 ff             	lea    -0x1(%rax),%eax
  401f31:	4c 8d 74 03 01       	lea    0x1(%rbx,%rax,1),%r14
  401f36:	48 89 d5             	mov    %rdx,%rbp
  401f39:	49 bd d9 ff 00 00 00 	movabs $0x2000000000ffd9,%r13
  401f40:	00 20 00 
  401f43:	44 0f b6 03          	movzbl (%rbx),%r8d
  401f47:	41 8d 40 d6          	lea    -0x2a(%r8),%eax
  401f4b:	3c 35                	cmp    $0x35,%al
  401f4d:	77 06                	ja     401f55 <submitr+0x309>
  401f4f:	49 0f a3 c5          	bt     %rax,%r13
  401f53:	72 0d                	jb     401f62 <submitr+0x316>
  401f55:	44 89 c0             	mov    %r8d,%eax
  401f58:	83 e0 df             	and    $0xffffffdf,%eax
  401f5b:	83 e8 41             	sub    $0x41,%eax
  401f5e:	3c 19                	cmp    $0x19,%al
  401f60:	77 0a                	ja     401f6c <submitr+0x320>
  401f62:	44 88 45 00          	mov    %r8b,0x0(%rbp)
  401f66:	48 8d 6d 01          	lea    0x1(%rbp),%rbp
  401f6a:	eb 6c                	jmp    401fd8 <submitr+0x38c>
  401f6c:	41 80 f8 20          	cmp    $0x20,%r8b
  401f70:	75 0a                	jne    401f7c <submitr+0x330>
  401f72:	c6 45 00 2b          	movb   $0x2b,0x0(%rbp)
  401f76:	48 8d 6d 01          	lea    0x1(%rbp),%rbp
  401f7a:	eb 5c                	jmp    401fd8 <submitr+0x38c>
  401f7c:	41 8d 40 e0          	lea    -0x20(%r8),%eax
  401f80:	3c 5f                	cmp    $0x5f,%al
  401f82:	76 0a                	jbe    401f8e <submitr+0x342>
  401f84:	41 80 f8 09          	cmp    $0x9,%r8b
  401f88:	0f 85 a3 03 00 00    	jne    402331 <submitr+0x6e5>
  401f8e:	45 0f b6 c0          	movzbl %r8b,%r8d
  401f92:	b9 70 33 40 00       	mov    $0x403370,%ecx
  401f97:	ba 08 00 00 00       	mov    $0x8,%edx
  401f9c:	be 01 00 00 00       	mov    $0x1,%esi
  401fa1:	48 8d bc 24 50 80 00 	lea    0x8050(%rsp),%rdi
  401fa8:	00 
  401fa9:	b8 00 00 00 00       	mov    $0x0,%eax
  401fae:	e8 fd ed ff ff       	callq  400db0 <__sprintf_chk@plt>
  401fb3:	0f b6 84 24 50 80 00 	movzbl 0x8050(%rsp),%eax
  401fba:	00 
  401fbb:	88 45 00             	mov    %al,0x0(%rbp)
  401fbe:	0f b6 84 24 51 80 00 	movzbl 0x8051(%rsp),%eax
  401fc5:	00 
  401fc6:	88 45 01             	mov    %al,0x1(%rbp)
  401fc9:	0f b6 84 24 52 80 00 	movzbl 0x8052(%rsp),%eax
  401fd0:	00 
  401fd1:	88 45 02             	mov    %al,0x2(%rbp)
  401fd4:	48 8d 6d 03          	lea    0x3(%rbp),%rbp
  401fd8:	48 83 c3 01          	add    $0x1,%rbx
  401fdc:	49 39 de             	cmp    %rbx,%r14
  401fdf:	0f 85 5e ff ff ff    	jne    401f43 <submitr+0x2f7>
  401fe5:	e9 d4 03 00 00       	jmpq   4023be <submitr+0x772>
  401fea:	48 89 da             	mov    %rbx,%rdx
  401fed:	48 89 ee             	mov    %rbp,%rsi
  401ff0:	44 89 e7             	mov    %r12d,%edi
  401ff3:	e8 38 ec ff ff       	callq  400c30 <write@plt>
  401ff8:	48 85 c0             	test   %rax,%rax
  401ffb:	7f 0f                	jg     40200c <submitr+0x3c0>
  401ffd:	e8 fe eb ff ff       	callq  400c00 <__errno_location@plt>
  402002:	83 38 04             	cmpl   $0x4,(%rax)
  402005:	75 12                	jne    402019 <submitr+0x3cd>
  402007:	b8 00 00 00 00       	mov    $0x0,%eax
  40200c:	48 01 c5             	add    %rax,%rbp
  40200f:	48 29 c3             	sub    %rax,%rbx
  402012:	75 d6                	jne    401fea <submitr+0x39e>
  402014:	4d 85 ed             	test   %r13,%r13
  402017:	79 5f                	jns    402078 <submitr+0x42c>
  402019:	48 b8 45 72 72 6f 72 	movabs $0x43203a726f727245,%rax
  402020:	3a 20 43 
  402023:	49 89 07             	mov    %rax,(%r15)
  402026:	48 b8 6c 69 65 6e 74 	movabs $0x6e7520746e65696c,%rax
  40202d:	20 75 6e 
  402030:	49 89 47 08          	mov    %rax,0x8(%r15)
  402034:	48 b8 61 62 6c 65 20 	movabs $0x206f7420656c6261,%rax
  40203b:	74 6f 20 
  40203e:	49 89 47 10          	mov    %rax,0x10(%r15)
  402042:	48 b8 77 72 69 74 65 	movabs $0x6f74206574697277,%rax
  402049:	20 74 6f 
  40204c:	49 89 47 18          	mov    %rax,0x18(%r15)
  402050:	48 b8 20 74 68 65 20 	movabs $0x7265732065687420,%rax
  402057:	73 65 72 
  40205a:	49 89 47 20          	mov    %rax,0x20(%r15)
  40205e:	41 c7 47 28 76 65 72 	movl   $0x726576,0x28(%r15)
  402065:	00 
  402066:	44 89 e7             	mov    %r12d,%edi
  402069:	e8 02 ec ff ff       	callq  400c70 <close@plt>
  40206e:	b8 ff ff ff ff       	mov    $0xffffffff,%eax
  402073:	e9 9d 02 00 00       	jmpq   402315 <submitr+0x6c9>
  402078:	44 89 64 24 40       	mov    %r12d,0x40(%rsp)
  40207d:	c7 44 24 44 00 00 00 	movl   $0x0,0x44(%rsp)
  402084:	00 
  402085:	48 8d 44 24 50       	lea    0x50(%rsp),%rax
  40208a:	48 89 44 24 48       	mov    %rax,0x48(%rsp)
  40208f:	ba 00 20 00 00       	mov    $0x2000,%edx
  402094:	48 8d b4 24 50 20 00 	lea    0x2050(%rsp),%rsi
  40209b:	00 
  40209c:	48 8d 7c 24 40       	lea    0x40(%rsp),%rdi
  4020a1:	e8 b4 fa ff ff       	callq  401b5a <rio_readlineb>
  4020a6:	48 85 c0             	test   %rax,%rax
  4020a9:	7f 74                	jg     40211f <submitr+0x4d3>
  4020ab:	48 b8 45 72 72 6f 72 	movabs $0x43203a726f727245,%rax
  4020b2:	3a 20 43 
  4020b5:	49 89 07             	mov    %rax,(%r15)
  4020b8:	48 b8 6c 69 65 6e 74 	movabs $0x6e7520746e65696c,%rax
  4020bf:	20 75 6e 
  4020c2:	49 89 47 08          	mov    %rax,0x8(%r15)
  4020c6:	48 b8 61 62 6c 65 20 	movabs $0x206f7420656c6261,%rax
  4020cd:	74 6f 20 
  4020d0:	49 89 47 10          	mov    %rax,0x10(%r15)
  4020d4:	48 b8 72 65 61 64 20 	movabs $0x7269662064616572,%rax
  4020db:	66 69 72 
  4020de:	49 89 47 18          	mov    %rax,0x18(%r15)
  4020e2:	48 b8 73 74 20 68 65 	movabs $0x6564616568207473,%rax
  4020e9:	61 64 65 
  4020ec:	49 89 47 20          	mov    %rax,0x20(%r15)
  4020f0:	48 b8 72 20 66 72 6f 	movabs $0x73206d6f72662072,%rax
  4020f7:	6d 20 73 
  4020fa:	49 89 47 28          	mov    %rax,0x28(%r15)
  4020fe:	41 c7 47 30 65 72 76 	movl   $0x65767265,0x30(%r15)
  402105:	65 
  402106:	66 41 c7 47 34 72 00 	movw   $0x72,0x34(%r15)
  40210d:	44 89 e7             	mov    %r12d,%edi
  402110:	e8 5b eb ff ff       	callq  400c70 <close@plt>
  402115:	b8 ff ff ff ff       	mov    $0xffffffff,%eax
  40211a:	e9 f6 01 00 00       	jmpq   402315 <submitr+0x6c9>
  40211f:	4c 8d 84 24 50 80 00 	lea    0x8050(%rsp),%r8
  402126:	00 
  402127:	48 8d 4c 24 2c       	lea    0x2c(%rsp),%rcx
  40212c:	48 8d 94 24 50 60 00 	lea    0x6050(%rsp),%rdx
  402133:	00 
  402134:	be 77 33 40 00       	mov    $0x403377,%esi
  402139:	48 8d bc 24 50 20 00 	lea    0x2050(%rsp),%rdi
  402140:	00 
  402141:	b8 00 00 00 00       	mov    $0x0,%eax
  402146:	e8 b5 eb ff ff       	callq  400d00 <__isoc99_sscanf@plt>
  40214b:	44 8b 44 24 2c       	mov    0x2c(%rsp),%r8d
  402150:	41 81 f8 c8 00 00 00 	cmp    $0xc8,%r8d
  402157:	0f 84 be 00 00 00    	je     40221b <submitr+0x5cf>
  40215d:	4c 8d 8c 24 50 80 00 	lea    0x8050(%rsp),%r9
  402164:	00 
  402165:	b9 98 32 40 00       	mov    $0x403298,%ecx
  40216a:	48 c7 c2 ff ff ff ff 	mov    $0xffffffffffffffff,%rdx
  402171:	be 01 00 00 00       	mov    $0x1,%esi
  402176:	4c 89 ff             	mov    %r15,%rdi
  402179:	b8 00 00 00 00       	mov    $0x0,%eax
  40217e:	e8 2d ec ff ff       	callq  400db0 <__sprintf_chk@plt>
  402183:	44 89 e7             	mov    %r12d,%edi
  402186:	e8 e5 ea ff ff       	callq  400c70 <close@plt>
  40218b:	b8 ff ff ff ff       	mov    $0xffffffff,%eax
  402190:	e9 80 01 00 00       	jmpq   402315 <submitr+0x6c9>
  402195:	ba 00 20 00 00       	mov    $0x2000,%edx
  40219a:	48 8d b4 24 50 20 00 	lea    0x2050(%rsp),%rsi
  4021a1:	00 
  4021a2:	48 8d 7c 24 40       	lea    0x40(%rsp),%rdi
  4021a7:	e8 ae f9 ff ff       	callq  401b5a <rio_readlineb>
  4021ac:	48 85 c0             	test   %rax,%rax
  4021af:	7f 6a                	jg     40221b <submitr+0x5cf>
  4021b1:	48 b8 45 72 72 6f 72 	movabs $0x43203a726f727245,%rax
  4021b8:	3a 20 43 
  4021bb:	49 89 07             	mov    %rax,(%r15)
  4021be:	48 b8 6c 69 65 6e 74 	movabs $0x6e7520746e65696c,%rax
  4021c5:	20 75 6e 
  4021c8:	49 89 47 08          	mov    %rax,0x8(%r15)
  4021cc:	48 b8 61 62 6c 65 20 	movabs $0x206f7420656c6261,%rax
  4021d3:	74 6f 20 
  4021d6:	49 89 47 10          	mov    %rax,0x10(%r15)
  4021da:	48 b8 72 65 61 64 20 	movabs $0x6165682064616572,%rax
  4021e1:	68 65 61 
  4021e4:	49 89 47 18          	mov    %rax,0x18(%r15)
  4021e8:	48 b8 64 65 72 73 20 	movabs $0x6f72662073726564,%rax
  4021ef:	66 72 6f 
  4021f2:	49 89 47 20          	mov    %rax,0x20(%r15)
  4021f6:	48 b8 6d 20 73 65 72 	movabs $0x726576726573206d,%rax
  4021fd:	76 65 72 
  402200:	49 89 47 28          	mov    %rax,0x28(%r15)
  402204:	41 c6 47 30 00       	movb   $0x0,0x30(%r15)
  402209:	44 89 e7             	mov    %r12d,%edi
  40220c:	e8 5f ea ff ff       	callq  400c70 <close@plt>
  402211:	b8 ff ff ff ff       	mov    $0xffffffff,%eax
  402216:	e9 fa 00 00 00       	jmpq   402315 <submitr+0x6c9>
  40221b:	80 bc 24 50 20 00 00 	cmpb   $0xd,0x2050(%rsp)
  402222:	0d 
  402223:	0f 85 6c ff ff ff    	jne    402195 <submitr+0x549>
  402229:	80 bc 24 51 20 00 00 	cmpb   $0xa,0x2051(%rsp)
  402230:	0a 
  402231:	0f 85 5e ff ff ff    	jne    402195 <submitr+0x549>
  402237:	80 bc 24 52 20 00 00 	cmpb   $0x0,0x2052(%rsp)
  40223e:	00 
  40223f:	0f 85 50 ff ff ff    	jne    402195 <submitr+0x549>
  402245:	ba 00 20 00 00       	mov    $0x2000,%edx
  40224a:	48 8d b4 24 50 20 00 	lea    0x2050(%rsp),%rsi
  402251:	00 
  402252:	48 8d 7c 24 40       	lea    0x40(%rsp),%rdi
  402257:	e8 fe f8 ff ff       	callq  401b5a <rio_readlineb>
  40225c:	48 85 c0             	test   %rax,%rax
  40225f:	7f 70                	jg     4022d1 <submitr+0x685>
  402261:	48 b8 45 72 72 6f 72 	movabs $0x43203a726f727245,%rax
  402268:	3a 20 43 
  40226b:	49 89 07             	mov    %rax,(%r15)
  40226e:	48 b8 6c 69 65 6e 74 	movabs $0x6e7520746e65696c,%rax
  402275:	20 75 6e 
  402278:	49 89 47 08          	mov    %rax,0x8(%r15)
  40227c:	48 b8 61 62 6c 65 20 	movabs $0x206f7420656c6261,%rax
  402283:	74 6f 20 
  402286:	49 89 47 10          	mov    %rax,0x10(%r15)
  40228a:	48 b8 72 65 61 64 20 	movabs $0x6174732064616572,%rax
  402291:	73 74 61 
  402294:	49 89 47 18          	mov    %rax,0x18(%r15)
  402298:	48 b8 74 75 73 20 6d 	movabs $0x7373656d20737574,%rax
  40229f:	65 73 73 
  4022a2:	49 89 47 20          	mov    %rax,0x20(%r15)
  4022a6:	48 b8 61 67 65 20 66 	movabs $0x6d6f726620656761,%rax
  4022ad:	72 6f 6d 
  4022b0:	49 89 47 28          	mov    %rax,0x28(%r15)
  4022b4:	48 b8 20 73 65 72 76 	movabs $0x72657672657320,%rax
  4022bb:	65 72 00 
  4022be:	49 89 47 30          	mov    %rax,0x30(%r15)
  4022c2:	44 89 e7             	mov    %r12d,%edi
  4022c5:	e8 a6 e9 ff ff       	callq  400c70 <close@plt>
  4022ca:	b8 ff ff ff ff       	mov    $0xffffffff,%eax
  4022cf:	eb 44                	jmp    402315 <submitr+0x6c9>
  4022d1:	48 8d b4 24 50 20 00 	lea    0x2050(%rsp),%rsi
  4022d8:	00 
  4022d9:	4c 89 ff             	mov    %r15,%rdi
  4022dc:	e8 2f e9 ff ff       	callq  400c10 <strcpy@plt>
  4022e1:	44 89 e7             	mov    %r12d,%edi
  4022e4:	e8 87 e9 ff ff       	callq  400c70 <close@plt>
  4022e9:	41 0f b6 17          	movzbl (%r15),%edx
  4022ed:	b8 4f 00 00 00       	mov    $0x4f,%eax
  4022f2:	29 d0                	sub    %edx,%eax
  4022f4:	75 15                	jne    40230b <submitr+0x6bf>
  4022f6:	41 0f b6 57 01       	movzbl 0x1(%r15),%edx
  4022fb:	b8 4b 00 00 00       	mov    $0x4b,%eax
  402300:	29 d0                	sub    %edx,%eax
  402302:	75 07                	jne    40230b <submitr+0x6bf>
  402304:	41 0f b6 47 02       	movzbl 0x2(%r15),%eax
  402309:	f7 d8                	neg    %eax
  40230b:	85 c0                	test   %eax,%eax
  40230d:	0f 95 c0             	setne  %al
  402310:	0f b6 c0             	movzbl %al,%eax
  402313:	f7 d8                	neg    %eax
  402315:	48 8b 8c 24 58 a0 00 	mov    0xa058(%rsp),%rcx
  40231c:	00 
  40231d:	64 48 33 0c 25 28 00 	xor    %fs:0x28,%rcx
  402324:	00 00 
  402326:	0f 84 0a 01 00 00    	je     402436 <submitr+0x7ea>
  40232c:	e9 00 01 00 00       	jmpq   402431 <submitr+0x7e5>
  402331:	48 b8 45 72 72 6f 72 	movabs $0x52203a726f727245,%rax
  402338:	3a 20 52 
  40233b:	49 89 07             	mov    %rax,(%r15)
  40233e:	48 b8 65 73 75 6c 74 	movabs $0x747320746c757365,%rax
  402345:	20 73 74 
  402348:	49 89 47 08          	mov    %rax,0x8(%r15)
  40234c:	48 b8 72 69 6e 67 20 	movabs $0x6e6f6320676e6972,%rax
  402353:	63 6f 6e 
  402356:	49 89 47 10          	mov    %rax,0x10(%r15)
  40235a:	48 b8 74 61 69 6e 73 	movabs $0x6e6120736e696174,%rax
  402361:	20 61 6e 
  402364:	49 89 47 18          	mov    %rax,0x18(%r15)
  402368:	48 b8 20 69 6c 6c 65 	movabs $0x6c6167656c6c6920,%rax
  40236f:	67 61 6c 
  402372:	49 89 47 20          	mov    %rax,0x20(%r15)
  402376:	48 b8 20 6f 72 20 75 	movabs $0x72706e7520726f20,%rax
  40237d:	6e 70 72 
  402380:	49 89 47 28          	mov    %rax,0x28(%r15)
  402384:	48 b8 69 6e 74 61 62 	movabs $0x20656c6261746e69,%rax
  40238b:	6c 65 20 
  40238e:	49 89 47 30          	mov    %rax,0x30(%r15)
  402392:	48 b8 63 68 61 72 61 	movabs $0x6574636172616863,%rax
  402399:	63 74 65 
  40239c:	49 89 47 38          	mov    %rax,0x38(%r15)
  4023a0:	66 41 c7 47 40 72 2e 	movw   $0x2e72,0x40(%r15)
  4023a7:	41 c6 47 42 00       	movb   $0x0,0x42(%r15)
  4023ac:	44 89 e7             	mov    %r12d,%edi
  4023af:	e8 bc e8 ff ff       	callq  400c70 <close@plt>
  4023b4:	b8 ff ff ff ff       	mov    $0xffffffff,%eax
  4023b9:	e9 57 ff ff ff       	jmpq   402315 <submitr+0x6c9>
  4023be:	48 8d 9c 24 50 20 00 	lea    0x2050(%rsp),%rbx
  4023c5:	00 
  4023c6:	48 8d 84 24 50 40 00 	lea    0x4050(%rsp),%rax
  4023cd:	00 
  4023ce:	50                   	push   %rax
  4023cf:	ff 74 24 20          	pushq  0x20(%rsp)
  4023d3:	4c 8b 4c 24 20       	mov    0x20(%rsp),%r9
  4023d8:	4c 8b 44 24 18       	mov    0x18(%rsp),%r8
  4023dd:	b9 c8 32 40 00       	mov    $0x4032c8,%ecx
  4023e2:	ba 00 20 00 00       	mov    $0x2000,%edx
  4023e7:	be 01 00 00 00       	mov    $0x1,%esi
  4023ec:	48 89 df             	mov    %rbx,%rdi
  4023ef:	b8 00 00 00 00       	mov    $0x0,%eax
  4023f4:	e8 b7 e9 ff ff       	callq  400db0 <__sprintf_chk@plt>
  4023f9:	b8 00 00 00 00       	mov    $0x0,%eax
  4023fe:	48 c7 c1 ff ff ff ff 	mov    $0xffffffffffffffff,%rcx
  402405:	48 89 df             	mov    %rbx,%rdi
  402408:	f2 ae                	repnz scas %es:(%rdi),%al
  40240a:	48 89 c8             	mov    %rcx,%rax
  40240d:	48 f7 d0             	not    %rax
  402410:	4c 8d 68 ff          	lea    -0x1(%rax),%r13
  402414:	48 83 c4 10          	add    $0x10,%rsp
  402418:	4c 89 eb             	mov    %r13,%rbx
  40241b:	48 8d ac 24 50 20 00 	lea    0x2050(%rsp),%rbp
  402422:	00 
  402423:	4d 85 ed             	test   %r13,%r13
  402426:	0f 85 be fb ff ff    	jne    401fea <submitr+0x39e>
  40242c:	e9 47 fc ff ff       	jmpq   402078 <submitr+0x42c>
  402431:	e8 0a e8 ff ff       	callq  400c40 <__stack_chk_fail@plt>
  402436:	48 81 c4 68 a0 00 00 	add    $0xa068,%rsp
  40243d:	5b                   	pop    %rbx
  40243e:	5d                   	pop    %rbp
  40243f:	41 5c                	pop    %r12
  402441:	41 5d                	pop    %r13
  402443:	41 5e                	pop    %r14
  402445:	41 5f                	pop    %r15
  402447:	c3                   	retq   

0000000000402448 <init_timeout>:
  402448:	85 ff                	test   %edi,%edi
  40244a:	74 22                	je     40246e <init_timeout+0x26>
  40244c:	53                   	push   %rbx
  40244d:	89 fb                	mov    %edi,%ebx
  40244f:	be 2c 1b 40 00       	mov    $0x401b2c,%esi
  402454:	bf 0e 00 00 00       	mov    $0xe,%edi
  402459:	e8 52 e8 ff ff       	callq  400cb0 <signal@plt>
  40245e:	85 db                	test   %ebx,%ebx
  402460:	bf 00 00 00 00       	mov    $0x0,%edi
  402465:	0f 49 fb             	cmovns %ebx,%edi
  402468:	e8 f3 e7 ff ff       	callq  400c60 <alarm@plt>
  40246d:	5b                   	pop    %rbx
  40246e:	f3 c3                	repz retq 

0000000000402470 <init_driver>:
  402470:	55                   	push   %rbp
  402471:	53                   	push   %rbx
  402472:	48 83 ec 28          	sub    $0x28,%rsp
  402476:	48 89 fd             	mov    %rdi,%rbp
  402479:	64 48 8b 04 25 28 00 	mov    %fs:0x28,%rax
  402480:	00 00 
  402482:	48 89 44 24 18       	mov    %rax,0x18(%rsp)
  402487:	31 c0                	xor    %eax,%eax
  402489:	be 01 00 00 00       	mov    $0x1,%esi
  40248e:	bf 0d 00 00 00       	mov    $0xd,%edi
  402493:	e8 18 e8 ff ff       	callq  400cb0 <signal@plt>
  402498:	be 01 00 00 00       	mov    $0x1,%esi
  40249d:	bf 1d 00 00 00       	mov    $0x1d,%edi
  4024a2:	e8 09 e8 ff ff       	callq  400cb0 <signal@plt>
  4024a7:	be 01 00 00 00       	mov    $0x1,%esi
  4024ac:	bf 1d 00 00 00       	mov    $0x1d,%edi
  4024b1:	e8 fa e7 ff ff       	callq  400cb0 <signal@plt>
  4024b6:	ba 00 00 00 00       	mov    $0x0,%edx
  4024bb:	be 01 00 00 00       	mov    $0x1,%esi
  4024c0:	bf 02 00 00 00       	mov    $0x2,%edi
  4024c5:	e8 f6 e8 ff ff       	callq  400dc0 <socket@plt>
  4024ca:	85 c0                	test   %eax,%eax
  4024cc:	79 4f                	jns    40251d <init_driver+0xad>
  4024ce:	48 b8 45 72 72 6f 72 	movabs $0x43203a726f727245,%rax
  4024d5:	3a 20 43 
  4024d8:	48 89 45 00          	mov    %rax,0x0(%rbp)
  4024dc:	48 b8 6c 69 65 6e 74 	movabs $0x6e7520746e65696c,%rax
  4024e3:	20 75 6e 
  4024e6:	48 89 45 08          	mov    %rax,0x8(%rbp)
  4024ea:	48 b8 61 62 6c 65 20 	movabs $0x206f7420656c6261,%rax
  4024f1:	74 6f 20 
  4024f4:	48 89 45 10          	mov    %rax,0x10(%rbp)
  4024f8:	48 b8 63 72 65 61 74 	movabs $0x7320657461657263,%rax
  4024ff:	65 20 73 
  402502:	48 89 45 18          	mov    %rax,0x18(%rbp)
  402506:	c7 45 20 6f 63 6b 65 	movl   $0x656b636f,0x20(%rbp)
  40250d:	66 c7 45 24 74 00    	movw   $0x74,0x24(%rbp)
  402513:	b8 ff ff ff ff       	mov    $0xffffffff,%eax
  402518:	e9 da 00 00 00       	jmpq   4025f7 <init_driver+0x187>
  40251d:	89 c3                	mov    %eax,%ebx
  40251f:	bf 88 33 40 00       	mov    $0x403388,%edi
  402524:	e8 97 e7 ff ff       	callq  400cc0 <gethostbyname@plt>
  402529:	48 85 c0             	test   %rax,%rax
  40252c:	75 30                	jne    40255e <init_driver+0xee>
  40252e:	41 b8 88 33 40 00    	mov    $0x403388,%r8d
  402534:	b9 18 33 40 00       	mov    $0x403318,%ecx
  402539:	48 c7 c2 ff ff ff ff 	mov    $0xffffffffffffffff,%rdx
  402540:	be 01 00 00 00       	mov    $0x1,%esi
  402545:	48 89 ef             	mov    %rbp,%rdi
  402548:	e8 63 e8 ff ff       	callq  400db0 <__sprintf_chk@plt>
  40254d:	89 df                	mov    %ebx,%edi
  40254f:	e8 1c e7 ff ff       	callq  400c70 <close@plt>
  402554:	b8 ff ff ff ff       	mov    $0xffffffff,%eax
  402559:	e9 99 00 00 00       	jmpq   4025f7 <init_driver+0x187>
  40255e:	48 c7 04 24 00 00 00 	movq   $0x0,(%rsp)
  402565:	00 
  402566:	48 c7 44 24 08 00 00 	movq   $0x0,0x8(%rsp)
  40256d:	00 00 
  40256f:	66 c7 04 24 02 00    	movw   $0x2,(%rsp)
  402575:	48 63 50 14          	movslq 0x14(%rax),%rdx
  402579:	48 8b 40 18          	mov    0x18(%rax),%rax
  40257d:	48 8d 7c 24 04       	lea    0x4(%rsp),%rdi
  402582:	b9 0c 00 00 00       	mov    $0xc,%ecx
  402587:	48 8b 30             	mov    (%rax),%rsi
  40258a:	e8 41 e7 ff ff       	callq  400cd0 <__memmove_chk@plt>
  40258f:	66 c7 44 24 02 3b 6e 	movw   $0x6e3b,0x2(%rsp)
  402596:	ba 10 00 00 00       	mov    $0x10,%edx
  40259b:	48 89 e6             	mov    %rsp,%rsi
  40259e:	89 df                	mov    %ebx,%edi
  4025a0:	e8 ab e7 ff ff       	callq  400d50 <connect@plt>
  4025a5:	85 c0                	test   %eax,%eax
  4025a7:	79 38                	jns    4025e1 <init_driver+0x171>
  4025a9:	41 b9 6e 3b 00 00    	mov    $0x3b6e,%r9d
  4025af:	41 b8 88 33 40 00    	mov    $0x403388,%r8d
  4025b5:	b9 40 33 40 00       	mov    $0x403340,%ecx
  4025ba:	48 c7 c2 ff ff ff ff 	mov    $0xffffffffffffffff,%rdx
  4025c1:	be 01 00 00 00       	mov    $0x1,%esi
  4025c6:	48 89 ef             	mov    %rbp,%rdi
  4025c9:	b8 00 00 00 00       	mov    $0x0,%eax
  4025ce:	e8 dd e7 ff ff       	callq  400db0 <__sprintf_chk@plt>
  4025d3:	89 df                	mov    %ebx,%edi
  4025d5:	e8 96 e6 ff ff       	callq  400c70 <close@plt>
  4025da:	b8 ff ff ff ff       	mov    $0xffffffff,%eax
  4025df:	eb 16                	jmp    4025f7 <init_driver+0x187>
  4025e1:	89 df                	mov    %ebx,%edi
  4025e3:	e8 88 e6 ff ff       	callq  400c70 <close@plt>
  4025e8:	66 c7 45 00 4f 4b    	movw   $0x4b4f,0x0(%rbp)
  4025ee:	c6 45 02 00          	movb   $0x0,0x2(%rbp)
  4025f2:	b8 00 00 00 00       	mov    $0x0,%eax
  4025f7:	48 8b 4c 24 18       	mov    0x18(%rsp),%rcx
  4025fc:	64 48 33 0c 25 28 00 	xor    %fs:0x28,%rcx
  402603:	00 00 
  402605:	74 05                	je     40260c <init_driver+0x19c>
  402607:	e8 34 e6 ff ff       	callq  400c40 <__stack_chk_fail@plt>
  40260c:	48 83 c4 28          	add    $0x28,%rsp
  402610:	5b                   	pop    %rbx
  402611:	5d                   	pop    %rbp
  402612:	c3                   	retq   

0000000000402613 <driver_post>:
  402613:	53                   	push   %rbx
  402614:	48 89 cb             	mov    %rcx,%rbx
  402617:	85 d2                	test   %edx,%edx
  402619:	74 27                	je     402642 <driver_post+0x2f>
  40261b:	48 89 f2             	mov    %rsi,%rdx
  40261e:	be 9d 33 40 00       	mov    $0x40339d,%esi
  402623:	bf 01 00 00 00       	mov    $0x1,%edi
  402628:	b8 00 00 00 00       	mov    $0x0,%eax
  40262d:	e8 de e6 ff ff       	callq  400d10 <__printf_chk@plt>
  402632:	66 c7 03 4f 4b       	movw   $0x4b4f,(%rbx)
  402637:	c6 43 02 00          	movb   $0x0,0x2(%rbx)
  40263b:	b8 00 00 00 00       	mov    $0x0,%eax
  402640:	eb 43                	jmp    402685 <driver_post+0x72>
  402642:	48 85 ff             	test   %rdi,%rdi
  402645:	74 30                	je     402677 <driver_post+0x64>
  402647:	80 3f 00             	cmpb   $0x0,(%rdi)
  40264a:	74 2b                	je     402677 <driver_post+0x64>
  40264c:	48 83 ec 08          	sub    $0x8,%rsp
  402650:	51                   	push   %rcx
  402651:	49 89 f1             	mov    %rsi,%r9
  402654:	41 b8 b4 33 40 00    	mov    $0x4033b4,%r8d
  40265a:	48 89 f9             	mov    %rdi,%rcx
  40265d:	ba c1 33 40 00       	mov    $0x4033c1,%edx
  402662:	be 6e 3b 00 00       	mov    $0x3b6e,%esi
  402667:	bf 88 33 40 00       	mov    $0x403388,%edi
  40266c:	e8 db f5 ff ff       	callq  401c4c <submitr>
  402671:	48 83 c4 10          	add    $0x10,%rsp
  402675:	eb 0e                	jmp    402685 <driver_post+0x72>
  402677:	66 c7 03 4f 4b       	movw   $0x4b4f,(%rbx)
  40267c:	c6 43 02 00          	movb   $0x0,0x2(%rbx)
  402680:	b8 00 00 00 00       	mov    $0x0,%eax
  402685:	5b                   	pop    %rbx
  402686:	c3                   	retq   
  402687:	66 0f 1f 84 00 00 00 	nopw   0x0(%rax,%rax,1)
  40268e:	00 00 

0000000000402690 <__libc_csu_init>:
  402690:	41 57                	push   %r15
  402692:	41 56                	push   %r14
  402694:	41 89 ff             	mov    %edi,%r15d
  402697:	41 55                	push   %r13
  402699:	41 54                	push   %r12
  40269b:	4c 8d 25 6e 17 20 00 	lea    0x20176e(%rip),%r12        # 603e10 <__frame_dummy_init_array_entry>
  4026a2:	55                   	push   %rbp
  4026a3:	48 8d 2d 6e 17 20 00 	lea    0x20176e(%rip),%rbp        # 603e18 <__do_global_dtors_aux_fini_array_entry>
  4026aa:	53                   	push   %rbx
  4026ab:	49 89 f6             	mov    %rsi,%r14
  4026ae:	49 89 d5             	mov    %rdx,%r13
  4026b1:	4c 29 e5             	sub    %r12,%rbp
  4026b4:	48 83 ec 08          	sub    $0x8,%rsp
  4026b8:	48 c1 fd 03          	sar    $0x3,%rbp
  4026bc:	e8 ef e4 ff ff       	callq  400bb0 <_init>
  4026c1:	48 85 ed             	test   %rbp,%rbp
  4026c4:	74 20                	je     4026e6 <__libc_csu_init+0x56>
  4026c6:	31 db                	xor    %ebx,%ebx
  4026c8:	0f 1f 84 00 00 00 00 	nopl   0x0(%rax,%rax,1)
  4026cf:	00 
  4026d0:	4c 89 ea             	mov    %r13,%rdx
  4026d3:	4c 89 f6             	mov    %r14,%rsi
  4026d6:	44 89 ff             	mov    %r15d,%edi
  4026d9:	41 ff 14 dc          	callq  *(%r12,%rbx,8)
  4026dd:	48 83 c3 01          	add    $0x1,%rbx
  4026e1:	48 39 eb             	cmp    %rbp,%rbx
  4026e4:	75 ea                	jne    4026d0 <__libc_csu_init+0x40>
  4026e6:	48 83 c4 08          	add    $0x8,%rsp
  4026ea:	5b                   	pop    %rbx
  4026eb:	5d                   	pop    %rbp
  4026ec:	41 5c                	pop    %r12
  4026ee:	41 5d                	pop    %r13
  4026f0:	41 5e                	pop    %r14
  4026f2:	41 5f                	pop    %r15
  4026f4:	c3                   	retq   
  4026f5:	90                   	nop
  4026f6:	66 2e 0f 1f 84 00 00 	nopw   %cs:0x0(%rax,%rax,1)
  4026fd:	00 00 00 

0000000000402700 <__libc_csu_fini>:
  402700:	f3 c3                	repz retq 

Disassembly of section .fini:

0000000000402704 <_fini>:
  402704:	48 83 ec 08          	sub    $0x8,%rsp
  402708:	48 83 c4 08          	add    $0x8,%rsp
  40270c:	c3                   	retq   
